Archive member included because of file (symbol)

/opt/PetaLinux/petalinux-v2014.2-final/tools/linux-i386/arm-xilinx-linux-gnueabi/bin/../lib/gcc/arm-xilinx-linux-gnueabi/4.8.1/libgcc.a(_udivsi3.o)
                              arch/arm/cpu/armv7/zynq/built-in.o (__aeabi_uidiv)
/opt/PetaLinux/petalinux-v2014.2-final/tools/linux-i386/arm-xilinx-linux-gnueabi/bin/../lib/gcc/arm-xilinx-linux-gnueabi/4.8.1/libgcc.a(_divsi3.o)
                              common/built-in.o (__aeabi_idiv)
/opt/PetaLinux/petalinux-v2014.2-final/tools/linux-i386/arm-xilinx-linux-gnueabi/bin/../lib/gcc/arm-xilinx-linux-gnueabi/4.8.1/libgcc.a(_lshrdi3.o)
                              common/built-in.o (__aeabi_llsr)
/opt/PetaLinux/petalinux-v2014.2-final/tools/linux-i386/arm-xilinx-linux-gnueabi/bin/../lib/gcc/arm-xilinx-linux-gnueabi/4.8.1/libgcc.a(_ashldi3.o)
                              drivers/mmc/built-in.o (__aeabi_llsl)
/opt/PetaLinux/petalinux-v2014.2-final/tools/linux-i386/arm-xilinx-linux-gnueabi/bin/../lib/gcc/arm-xilinx-linux-gnueabi/4.8.1/libgcc.a(_dvmd_lnx.o)
                              /opt/PetaLinux/petalinux-v2014.2-final/tools/linux-i386/arm-xilinx-linux-gnueabi/bin/../lib/gcc/arm-xilinx-linux-gnueabi/4.8.1/libgcc.a(_udivsi3.o) (__aeabi_idiv0)

Discarded input sections

 .data          0x00000000        0x0 arch/arm/cpu/armv7/start.o
 .bss           0x00000000        0x0 arch/arm/cpu/armv7/start.o
 .text          0x00000000        0x0 arch/arm/cpu/armv7/built-in.o
 .text.sdelay   0x00000000        0xc arch/arm/cpu/armv7/built-in.o
 .text.sr32     0x00000000       0x24 arch/arm/cpu/armv7/built-in.o
 .text.wait_on_value
                0x00000000       0x34 arch/arm/cpu/armv7/built-in.o
 .data          0x00000000        0x0 arch/arm/cpu/armv7/built-in.o
 .bss           0x00000000        0x0 arch/arm/cpu/armv7/built-in.o
 .text.zynq_clk_get_name
                0x00000000       0x18 arch/arm/cpu/armv7/zynq/built-in.o
 .text.zynq_get_silicon_version
                0x00000000       0x14 arch/arm/cpu/armv7/zynq/built-in.o
 .text.zynq_slcr_devcfg_disable
                0x00000000       0x24 arch/arm/cpu/armv7/zynq/built-in.o
 .text.zynq_slcr_devcfg_enable
                0x00000000       0x24 arch/arm/cpu/armv7/zynq/built-in.o
 .text.zynq_slcr_get_boot_mode
                0x00000000        0xc arch/arm/cpu/armv7/zynq/built-in.o
 .data          0x00000000        0x0 arch/arm/cpu/armv7/zynq/built-in.o
 .bss           0x00000000        0x0 arch/arm/cpu/armv7/zynq/built-in.o
 .text.__arch_cpu_init
                0x00000000        0x8 arch/arm/lib/built-in.o
 .text.__red_led_off
                0x00000000        0x4 arch/arm/lib/built-in.o
 .text.__green_led_on
                0x00000000        0x4 arch/arm/lib/built-in.o
 .text.__green_led_off
                0x00000000        0x4 arch/arm/lib/built-in.o
 .text.__yellow_led_on
                0x00000000        0x4 arch/arm/lib/built-in.o
 .text.__yellow_led_off
                0x00000000        0x4 arch/arm/lib/built-in.o
 .text.__blue_led_on
                0x00000000        0x4 arch/arm/lib/built-in.o
 .text.__blue_led_off
                0x00000000        0x4 arch/arm/lib/built-in.o
 .text.setup_board_tags
                0x00000000        0x4 arch/arm/lib/built-in.o
 .text.__arm_init_before_mmu
                0x00000000        0x4 arch/arm/lib/built-in.o
 .text.__mmu_page_table_flush
                0x00000000        0x4 arch/arm/lib/built-in.o
 .text.__flush_cache
                0x00000000        0x4 arch/arm/lib/built-in.o
 .text.__flush_dcache_all
                0x00000000        0xc arch/arm/lib/built-in.o
 .text.__enable_caches
                0x00000000        0xc arch/arm/lib/built-in.o
 .data          0x00000000        0x0 arch/arm/lib/built-in.o
 .bss           0x00000000        0x0 arch/arm/lib/built-in.o
 .text          0x00000000        0x0 board/xilinx/zynq/built-in.o
 .text.board_late_init
                0x00000000       0x9c board/xilinx/zynq/built-in.o
 .data          0x00000000        0x0 board/xilinx/zynq/built-in.o
 .bss           0x00000000        0x0 board/xilinx/zynq/built-in.o
 .text          0x00000000        0x0 common/built-in.o
 .text.invalidate_icache_all
                0x00000000        0xc common/built-in.o
 .text.flush_dcache_all
                0x00000000        0xc common/built-in.o
 .text.soc_clk_dump
                0x00000000       0x18 common/built-in.o
 .text.fputs    0x00000000       0x28 common/built-in.o
 .text.fprintf  0x00000000       0x54 common/built-in.o
 .text.disable_ctrlc
                0x00000000       0x18 common/built-in.o
 .text.dbg      0x00000000        0xc common/built-in.o
 .text.valloc   0x00000000        0xc common/built-in.o
 .text.pvalloc  0x00000000       0x18 common/built-in.o
 .text.cfree    0x00000000        0x4 common/built-in.o
 .text.malloc_usable_size
                0x00000000       0x3c common/built-in.o
 .text.mallopt  0x00000000       0x68 common/built-in.o
 .text.env_flags_parse_varaccess_from_binflags
                0x00000000       0x28 common/built-in.o
 .text.of_bus_default_map
                0x00000000       0xe8 common/built-in.o
 .text.of_bus_default_count_cells
                0x00000000       0x74 common/built-in.o
 .text.of_bus_default_translate
                0x00000000       0xa0 common/built-in.o
 .text.fdt_getprop_u32_default
                0x00000000       0x48 common/built-in.o
 .text.do_fixup_by_path_u32
                0x00000000       0x2c common/built-in.o
 .text.do_fixup_by_prop
                0x00000000       0x98 common/built-in.o
 .text.do_fixup_by_prop_u32
                0x00000000       0x3c common/built-in.o
 .text.do_fixup_by_compat
                0x00000000       0x88 common/built-in.o
 .text.do_fixup_by_compat_u32
                0x00000000       0x2c common/built-in.o
 .text.fdt_increase_size
                0x00000000       0x14 common/built-in.o
 .text.fdt_del_node_and_alias
                0x00000000       0x44 common/built-in.o
 .text.fdt_translate_address
                0x00000000      0x294 common/built-in.o
 .text.fdt_node_offset_by_compat_reg
                0x00000000       0x88 common/built-in.o
 .text.fdt_alloc_phandle
                0x00000000       0x58 common/built-in.o
 .text.fdt_set_phandle
                0x00000000       0x60 common/built-in.o
 .text.fdt_create_phandle
                0x00000000       0x64 common/built-in.o
 .text.fdt_set_node_status
                0x00000000      0x108 common/built-in.o
 .text.fdt_set_status_by_alias
                0x00000000       0x2c common/built-in.o
 .text.fdt_verify_alias_address
                0x00000000       0xcc common/built-in.o
 .text.fdt_get_base_address
                0x00000000       0x80 common/built-in.o
 .text.hash_block
                0x00000000       0x78 common/built-in.o
 .text.unset_local_var
                0x00000000       0x9c common/built-in.o
 .text.arch_fixup_memory_node
                0x00000000        0x8 common/built-in.o
 .text.fit_get_timestamp
                0x00000000       0x54 common/built-in.o
 .text.fit_set_timestamp
                0x00000000       0x78 common/built-in.o
 .text.fit_conf_find_compat
                0x00000000      0x1a4 common/built-in.o
 .text.parse_line
                0x00000000       0x88 common/built-in.o
 .text.get_ram_size
                0x00000000       0xfc common/built-in.o
 .text.mdio_register
                0x00000000       0x8c common/built-in.o
 .text.mdio_list_devices
                0x00000000       0x9c common/built-in.o
 .text.miiphy_set_current_dev
                0x00000000       0x40 common/built-in.o
 .text.miiphy_get_active_dev
                0x00000000       0x54 common/built-in.o
 .text.mdio_get_current_dev
                0x00000000       0x10 common/built-in.o
 .text.mdio_phydev_for_ethname
                0x00000000       0x8c common/built-in.o
 .text.miiphy_get_current_dev
                0x00000000       0x18 common/built-in.o
 .text.miiphy_read
                0x00000000       0x4c common/built-in.o
 .text.miiphy_write
                0x00000000       0x40 common/built-in.o
 .text.miiphy_listdev
                0x00000000       0x74 common/built-in.o
 .text.miiphy_info
                0x00000000       0x88 common/built-in.o
 .text.miiphy_is_1000base_x
                0x00000000       0x44 common/built-in.o
 .text.miiphy_speed
                0x00000000       0xe8 common/built-in.o
 .text.miiphy_duplex
                0x00000000      0x11c common/built-in.o
 .text.miiphy_link
                0x00000000       0x54 common/built-in.o
 .text.__splash_screen_prepare
                0x00000000        0x8 common/built-in.o
 .rodata.__FUNCTION__.7258
                0x00000000       0x17 common/built-in.o
 .data          0x00000000        0x0 common/built-in.o
 .data.mmap_threshold
                0x00000000        0x4 common/built-in.o
 .data.of_busses
                0x00000000       0x14 common/built-in.o
 .data.hash_algo
                0x00000000       0x10 common/built-in.o
 .bss           0x00000000        0x0 common/built-in.o
 .bss.n_mmaps_max
                0x00000000        0x4 common/built-in.o
 .bss.save_addr
                0x00000000        0x4 common/built-in.o
 .bss.save_size
                0x00000000        0x4 common/built-in.o
 .text          0x00000000        0x0 disk/built-in.o
 .data          0x00000000        0x0 disk/built-in.o
 .bss           0x00000000        0x0 disk/built-in.o
 .text          0x00000000        0x0 drivers/built-in.o
 .text.load_word
                0x00000000       0x48 drivers/built-in.o
 .text.zynq_info
                0x00000000        0x8 drivers/built-in.o
 .text.zynq_load
                0x00000000      0x3f0 drivers/built-in.o
 .text.zynq_dump
                0x00000000        0x8 drivers/built-in.o
 .rodata.__func__.8010
                0x00000000        0xa drivers/built-in.o
 .rodata.__func__.7948
                0x00000000       0x13 drivers/built-in.o
 .rodata.__func__.8000
                0x00000000       0x18 drivers/built-in.o
 .rodata.bin_format
                0x00000000       0x34 drivers/built-in.o
 .rodata.__func__.7982
                0x00000000       0x16 drivers/built-in.o
 .rodata.__func__.7921
                0x00000000       0x12 drivers/built-in.o
 .data          0x00000000        0x0 drivers/built-in.o
 .bss           0x00000000        0x0 drivers/built-in.o
 .text          0x00000000        0x0 drivers/input/built-in.o
 .text.input_tstc
                0x00000000       0x48 drivers/input/built-in.o
 .text.input_getc
                0x00000000       0x58 drivers/input/built-in.o
 .text.input_send_keycodes
                0x00000000      0x3b0 drivers/input/built-in.o
 .text.input_add_table
                0x00000000       0x40 drivers/input/built-in.o
 .text.input_set_delays
                0x00000000        0xc drivers/input/built-in.o
 .text.input_init
                0x00000000       0x9c drivers/input/built-in.o
 .text.input_stdio_register
                0x00000000       0x50 drivers/input/built-in.o
 .rodata.kbd_to_ansi364
                0x00000000       0x20 drivers/input/built-in.o
 .rodata.kbd_plain_xlate
                0x00000000       0x63 drivers/input/built-in.o
 .rodata.str1.1
                0x00000000       0x16 drivers/input/built-in.o
 .rodata.CSWTCH.28
                0x00000000        0xd drivers/input/built-in.o
 .data          0x00000000        0x0 drivers/input/built-in.o
 .data.kbd_ctrl_xlate
                0x00000000       0x63 drivers/input/built-in.o
 .data.kbd_shift_xlate
                0x00000000       0x63 drivers/input/built-in.o
 .bss           0x00000000        0x0 drivers/input/built-in.o
 .comment       0x00000000       0x31 drivers/input/built-in.o
 .note.GNU-stack
                0x00000000        0x0 drivers/input/built-in.o
 .ARM.attributes
                0x00000000       0x2d drivers/input/built-in.o
 .debug_aranges
                0x00000000       0x50 drivers/input/built-in.o
 .debug_info    0x00000000     0x10d6 drivers/input/built-in.o
 .debug_abbrev  0x00000000      0x3a1 drivers/input/built-in.o
 .debug_line    0x00000000      0x375 drivers/input/built-in.o
 .debug_frame   0x00000000       0xc8 drivers/input/built-in.o
 .debug_str     0x00000000      0x7a8 drivers/input/built-in.o
 .debug_loc     0x00000000      0xa44 drivers/input/built-in.o
 .debug_ranges  0x00000000      0x120 drivers/input/built-in.o
 .text          0x00000000        0x0 drivers/mmc/built-in.o
 .text.mmc_set_preinit
                0x00000000        0x8 drivers/mmc/built-in.o
 .data          0x00000000        0x0 drivers/mmc/built-in.o
 .bss           0x00000000        0x0 drivers/mmc/built-in.o
 .text          0x00000000        0x0 drivers/mtd/spi/built-in.o
 .text.spi_flash_cmd_write_status
                0x00000000       0x2c drivers/mtd/spi/built-in.o
 .data          0x00000000        0x0 drivers/mtd/spi/built-in.o
 .bss           0x00000000        0x0 drivers/mtd/spi/built-in.o
 .text          0x00000000        0x0 drivers/net/built-in.o
 .data          0x00000000        0x0 drivers/net/built-in.o
 .bss           0x00000000        0x0 drivers/net/built-in.o
 .text          0x00000000        0x0 drivers/net/phy/built-in.o
 .text.miiphy_reset
                0x00000000       0x24 drivers/net/phy/built-in.o
 .text.phy_shutdown
                0x00000000       0x20 drivers/net/phy/built-in.o
 .data          0x00000000        0x0 drivers/net/phy/built-in.o
 .bss           0x00000000        0x0 drivers/net/phy/built-in.o
 .text          0x00000000        0x0 drivers/serial/built-in.o
 .text.serial_reinit_all
                0x00000000       0x2c drivers/serial/built-in.o
 .text.default_serial_puts
                0x00000000       0x30 drivers/serial/built-in.o
 .data          0x00000000        0x0 drivers/serial/built-in.o
 .bss           0x00000000        0x0 drivers/serial/built-in.o
 .text          0x00000000        0x0 drivers/spi/built-in.o
 .text.spi_set_wordlen
                0x00000000       0x30 drivers/spi/built-in.o
 .text.spi_cs_is_valid
                0x00000000       0x14 drivers/spi/built-in.o
 .text.spi_cs_activate
                0x00000000        0x4 drivers/spi/built-in.o
 .text.spi_cs_deactivate
                0x00000000        0x4 drivers/spi/built-in.o
 .data          0x00000000        0x0 drivers/spi/built-in.o
 .bss           0x00000000        0x0 drivers/spi/built-in.o
 .text          0x00000000        0x0 fs/built-in.o
 .text.fat_register_device
                0x00000000       0x88 fs/built-in.o
 .text.file_fat_read
                0x00000000       0x14 fs/built-in.o
 .text.file_getfsname
                0x00000000       0x18 fs/built-in.o
 .text.file_cd  0x00000000      0x1f0 fs/built-in.o
 .text.file_detectfs
                0x00000000       0x40 fs/built-in.o
 .text.file_ls  0x00000000       0x94 fs/built-in.o
 .text.file_read
                0x00000000       0xa4 fs/built-in.o
 .text.fs_write
                0x00000000       0x78 fs/built-in.o
 .text.do_save  0x00000000      0x128 fs/built-in.o
 .rodata.filesystems
                0x00000000       0x18 fs/built-in.o
 .data          0x00000000        0x0 fs/built-in.o
 .data.file_cwd
                0x00000000      0x200 fs/built-in.o
 .data.current_filesystem
                0x00000000        0x4 fs/built-in.o
 .bss           0x00000000        0x0 fs/built-in.o
 .bss.g_parent_inode
                0x00000000        0x4 fs/built-in.o
 .bss.ext4fs_symlinknest
                0x00000000        0x4 fs/built-in.o
 .text          0x00000000        0x0 lib/built-in.o
 .text.crc32_wd_buf
                0x00000000       0x40 lib/built-in.o
 .text.crc7     0x00000000       0x24 lib/built-in.o
 .text.crc8     0x00000000       0x44 lib/built-in.o
 .text.display_options
                0x00000000       0x20 lib/built-in.o
 .text.hmatch_r
                0x00000000       0xa0 lib/built-in.o
 .text.initcall_run_list
                0x00000000       0x2c lib/built-in.o
 .text.ldiv     0x00000000       0x50 lib/built-in.o
 .text.lmb_dump_all
                0x00000000        0x4 lib/built-in.o
 .text.lmb_is_reserved
                0x00000000       0x50 lib/built-in.o
 .text.__arch_lmb_reserve
                0x00000000        0x4 lib/built-in.o
 .text.md5      0x00000000       0x68 lib/built-in.o
 .text.strcmp_compar
                0x00000000        0xc lib/built-in.o
 .text.sha1_csum
                0x00000000       0x40 lib/built-in.o
 .text.sha1_hmac
                0x00000000      0x128 lib/built-in.o
 .text.sha1_self_test
                0x00000000        0x8 lib/built-in.o
 .text.strncasecmp
                0x00000000       0x80 lib/built-in.o
 .text.strcasecmp
                0x00000000        0x8 lib/built-in.o
 .text.strrchr  0x00000000       0x3c lib/built-in.o
 .text.strspn   0x00000000       0x3c lib/built-in.o
 .text.strtok   0x00000000       0x88 lib/built-in.o
 .text.strsep   0x00000000       0x38 lib/built-in.o
 .text.strswab  0x00000000       0x48 lib/built-in.o
 .text.bcopy    0x00000000       0x20 lib/built-in.o
 .text.memscan  0x00000000       0x2c lib/built-in.o
 .text.memchr_inv
                0x00000000      0x13c lib/built-in.o
 .text.strmhz   0x00000000       0x6c lib/built-in.o
 .text.tick_to_time
                0x00000000       0x64 lib/built-in.o
 .text.get_ticks
                0x00000000       0x3c lib/built-in.o
 .text.get_timer
                0x00000000       0x18 lib/built-in.o
 .text.timer_get_us
                0x00000000       0x24 lib/built-in.o
 .text.__udelay
                0x00000000       0x7c lib/built-in.o
 .text.mdelay   0x00000000       0x24 lib/built-in.o
 .text.ustrtoul
                0x00000000       0x70 lib/built-in.o
 .text.ustrtoull
                0x00000000       0x88 lib/built-in.o
 .text.__assert_fail
                0x00000000       0x14 lib/built-in.o
 .text.print_grouped_ull
                0x00000000       0x88 lib/built-in.o
 .text.inflateInit_
                0x00000000       0x14 lib/built-in.o
 .rodata.crc7_syndrome_table
                0x00000000      0x100 lib/built-in.o
 .rodata.z_errmsg
                0x00000000       0x28 lib/built-in.o
 .data          0x00000000        0x0 lib/built-in.o
 .bss           0x00000000        0x0 lib/built-in.o
 .bss.___strtok
                0x00000000        0x4 lib/built-in.o
 .text          0x00000000        0x0 lib/libfdt/built-in.o
 .text.fdt_create_empty_tree
                0x00000000       0x74 lib/libfdt/built-in.o
 .text.fdt_getprop_by_offset
                0x00000000       0x48 lib/libfdt/built-in.o
 .text.fdt_get_phandle
                0x00000000       0x70 lib/libfdt/built-in.o
 .text.fdt_get_alias
                0x00000000       0x28 lib/libfdt/built-in.o
 .text.fdt_get_path
                0x00000000      0x13c lib/libfdt/built-in.o
 .text.fdt_parent_offset
                0x00000000       0x30 lib/libfdt/built-in.o
 .text.fdt_node_offset_by_prop_value
                0x00000000       0x9c lib/libfdt/built-in.o
 .text.fdt_node_offset_by_phandle
                0x00000000       0x78 lib/libfdt/built-in.o
 .text.fdt_stringlist_contains
                0x00000000       0x7c lib/libfdt/built-in.o
 .text.fdt_node_check_compatible
                0x00000000       0x40 lib/libfdt/built-in.o
 .text.fdt_node_offset_by_compatible
                0x00000000       0x74 lib/libfdt/built-in.o
 .text.fdt_set_name
                0x00000000       0x88 lib/libfdt/built-in.o
 .text.fdt_appendprop
                0x00000000       0xd0 lib/libfdt/built-in.o
 .text.fdt_pack
                0x00000000       0x5c lib/libfdt/built-in.o
 .text._fdt_sw_check_header
                0x00000000       0x20 lib/libfdt/built-in.o
 .text._fdt_grab_space
                0x00000000       0x58 lib/libfdt/built-in.o
 .text.fdt_create
                0x00000000       0x64 lib/libfdt/built-in.o
 .text.fdt_add_reservemap_entry
                0x00000000       0x90 lib/libfdt/built-in.o
 .text.fdt_finish_reservemap
                0x00000000       0x1c lib/libfdt/built-in.o
 .text.fdt_begin_node
                0x00000000       0x68 lib/libfdt/built-in.o
 .text.fdt_end_node
                0x00000000       0x40 lib/libfdt/built-in.o
 .text.fdt_property
                0x00000000      0x10c lib/libfdt/built-in.o
 .text.fdt_finish
                0x00000000      0x108 lib/libfdt/built-in.o
 .text.fdt_setprop_inplace
                0x00000000       0x44 lib/libfdt/built-in.o
 .text.fdt_nop_property
                0x00000000       0x3c lib/libfdt/built-in.o
 .text.fdt_nop_node
                0x00000000       0x50 lib/libfdt/built-in.o
 .text.fdt_find_regions
                0x00000000      0x394 lib/libfdt/built-in.o
 .data          0x00000000        0x0 lib/libfdt/built-in.o
 .bss           0x00000000        0x0 lib/libfdt/built-in.o
 .text          0x00000000        0x0 net/built-in.o
 .text.eth_get_dev_by_name
                0x00000000       0x84 net/built-in.o
 .text.net_get_udp_handler
                0x00000000       0x10 net/built-in.o
 .text.random_port
                0x00000000       0x18 net/built-in.o
 .text.VLAN_to_string
                0x00000000       0x44 net/built-in.o
 .rodata.__FUNCTION__.7338
                0x00000000       0x14 net/built-in.o
 .data          0x00000000        0x0 net/built-in.o
 .data.TftpRRQTimeoutMSecs
                0x00000000        0x4 net/built-in.o
 .bss           0x00000000        0x0 net/built-in.o
 .bss.net_busy_flag
                0x00000000        0x4 net/built-in.o
 .text          0x00000000        0x0 /home/kartha/Avnet-Digilent-ZedBoard-2014.2/build/linux/u-boot/u-boot-plnx/arch/arm/lib/eabi_compat.o
 .data          0x00000000        0x0 /home/kartha/Avnet-Digilent-ZedBoard-2014.2/build/linux/u-boot/u-boot-plnx/arch/arm/lib/eabi_compat.o
 .bss           0x00000000        0x0 /home/kartha/Avnet-Digilent-ZedBoard-2014.2/build/linux/u-boot/u-boot-plnx/arch/arm/lib/eabi_compat.o
 .text.__aeabi_unwind_cpp_pr0
                0x00000000        0x4 /home/kartha/Avnet-Digilent-ZedBoard-2014.2/build/linux/u-boot/u-boot-plnx/arch/arm/lib/eabi_compat.o
 .text.__aeabi_unwind_cpp_pr1
                0x00000000        0x4 /home/kartha/Avnet-Digilent-ZedBoard-2014.2/build/linux/u-boot/u-boot-plnx/arch/arm/lib/eabi_compat.o
 .data          0x00000000        0x0 /opt/PetaLinux/petalinux-v2014.2-final/tools/linux-i386/arm-xilinx-linux-gnueabi/bin/../lib/gcc/arm-xilinx-linux-gnueabi/4.8.1/libgcc.a(_udivsi3.o)
 .bss           0x00000000        0x0 /opt/PetaLinux/petalinux-v2014.2-final/tools/linux-i386/arm-xilinx-linux-gnueabi/bin/../lib/gcc/arm-xilinx-linux-gnueabi/4.8.1/libgcc.a(_udivsi3.o)
 .data          0x00000000        0x0 /opt/PetaLinux/petalinux-v2014.2-final/tools/linux-i386/arm-xilinx-linux-gnueabi/bin/../lib/gcc/arm-xilinx-linux-gnueabi/4.8.1/libgcc.a(_divsi3.o)
 .bss           0x00000000        0x0 /opt/PetaLinux/petalinux-v2014.2-final/tools/linux-i386/arm-xilinx-linux-gnueabi/bin/../lib/gcc/arm-xilinx-linux-gnueabi/4.8.1/libgcc.a(_divsi3.o)
 .data          0x00000000        0x0 /opt/PetaLinux/petalinux-v2014.2-final/tools/linux-i386/arm-xilinx-linux-gnueabi/bin/../lib/gcc/arm-xilinx-linux-gnueabi/4.8.1/libgcc.a(_lshrdi3.o)
 .bss           0x00000000        0x0 /opt/PetaLinux/petalinux-v2014.2-final/tools/linux-i386/arm-xilinx-linux-gnueabi/bin/../lib/gcc/arm-xilinx-linux-gnueabi/4.8.1/libgcc.a(_lshrdi3.o)
 .data          0x00000000        0x0 /opt/PetaLinux/petalinux-v2014.2-final/tools/linux-i386/arm-xilinx-linux-gnueabi/bin/../lib/gcc/arm-xilinx-linux-gnueabi/4.8.1/libgcc.a(_ashldi3.o)
 .bss           0x00000000        0x0 /opt/PetaLinux/petalinux-v2014.2-final/tools/linux-i386/arm-xilinx-linux-gnueabi/bin/../lib/gcc/arm-xilinx-linux-gnueabi/4.8.1/libgcc.a(_ashldi3.o)
 .data          0x00000000        0x0 /opt/PetaLinux/petalinux-v2014.2-final/tools/linux-i386/arm-xilinx-linux-gnueabi/bin/../lib/gcc/arm-xilinx-linux-gnueabi/4.8.1/libgcc.a(_dvmd_lnx.o)
 .bss           0x00000000        0x0 /opt/PetaLinux/petalinux-v2014.2-final/tools/linux-i386/arm-xilinx-linux-gnueabi/bin/../lib/gcc/arm-xilinx-linux-gnueabi/4.8.1/libgcc.a(_dvmd_lnx.o)

Memory Configuration

Name             Origin             Length             Attributes
*default*        0x00000000         0xffffffff

Linker script and memory map

                0x00000000                . = 0x0
                0x00000000                . = ALIGN (0x4)

.text           0x1ff00000    0x2b130
 *(.__image_copy_start)
 .__image_copy_start
                0x1ff00000        0x0 arch/arm/lib/built-in.o
                0x1ff00000                __image_copy_start
 arch/arm/cpu/armv7/start.o(.text*)
 .text          0x1ff00000      0x3a0 arch/arm/cpu/armv7/start.o
                0x1ff00000                _start
                0x1ff00040                _end_vect
                0x1ff00040                _TEXT_BASE
                0x1ff00044                _bss_start_ofs
                0x1ff00048                _bss_end_ofs
                0x1ff0004c                _end_ofs
                0x1ff00050                IRQ_STACK_START_IN
                0x1ff00094                c_runtime_cpu_setup
                0x1ff000ac                save_boot_params
                0x1ff000b0                cpu_init_cp15
                0x1ff000e8                cpu_init_crit
 *(.text*)
 .text.v7_maint_dcache_all
                0x1ff003a0       0xd4 arch/arm/cpu/armv7/built-in.o
 .text.v7_dcache_inval_range
                0x1ff00474       0x80 arch/arm/cpu/armv7/built-in.o
 .text.invalidate_icache_all
                0x1ff004f4       0x18 arch/arm/cpu/armv7/built-in.o
                0x1ff004f4                invalidate_icache_all
 .text.__v7_outer_cache_enable
                0x1ff0050c        0x4 arch/arm/cpu/armv7/built-in.o
                0x1ff0050c                __v7_outer_cache_enable
                0x1ff0050c                v7_outer_cache_enable
 .text.__v7_outer_cache_disable
                0x1ff00510        0x4 arch/arm/cpu/armv7/built-in.o
                0x1ff00510                v7_outer_cache_disable
                0x1ff00510                __v7_outer_cache_disable
 .text.__v7_outer_cache_flush_all
                0x1ff00514        0x4 arch/arm/cpu/armv7/built-in.o
                0x1ff00514                __v7_outer_cache_flush_all
                0x1ff00514                v7_outer_cache_flush_all
 .text.flush_dcache_all
                0x1ff00518       0x14 arch/arm/cpu/armv7/built-in.o
                0x1ff00518                flush_dcache_all
 .text.__v7_outer_cache_inval_all
                0x1ff0052c        0x4 arch/arm/cpu/armv7/built-in.o
                0x1ff0052c                v7_outer_cache_inval_all
                0x1ff0052c                __v7_outer_cache_inval_all
 .text.invalidate_dcache_all
                0x1ff00530       0x14 arch/arm/cpu/armv7/built-in.o
                0x1ff00530                invalidate_dcache_all
 .text.arm_init_before_mmu
                0x1ff00544       0x28 arch/arm/cpu/armv7/built-in.o
                0x1ff00544                arm_init_before_mmu
 .text.__v7_outer_cache_flush_range
                0x1ff0056c        0x4 arch/arm/cpu/armv7/built-in.o
                0x1ff0056c                v7_outer_cache_flush_range
                0x1ff0056c                __v7_outer_cache_flush_range
 .text.flush_dcache_range
                0x1ff00570       0x3c arch/arm/cpu/armv7/built-in.o
                0x1ff00570                flush_dcache_range
 .text.mmu_page_table_flush
                0x1ff005ac       0x24 arch/arm/cpu/armv7/built-in.o
                0x1ff005ac                mmu_page_table_flush
 .text.flush_cache
                0x1ff005d0        0x8 arch/arm/cpu/armv7/built-in.o
                0x1ff005d0                flush_cache
 .text.__v7_outer_cache_inval_range
                0x1ff005d8        0x4 arch/arm/cpu/armv7/built-in.o
                0x1ff005d8                __v7_outer_cache_inval_range
                0x1ff005d8                v7_outer_cache_inval_range
 .text.invalidate_dcache_range
                0x1ff005dc       0x3c arch/arm/cpu/armv7/built-in.o
                0x1ff005dc                invalidate_dcache_range
 .text.cpu_cache_initialization
                0x1ff00618        0x4 arch/arm/cpu/armv7/built-in.o
                0x1ff00618                cpu_cache_initialization
 .text.cleanup_before_linux
                0x1ff0061c       0x28 arch/arm/cpu/armv7/built-in.o
                0x1ff0061c                cleanup_before_linux
 .text          0x1ff00644       0x24 arch/arm/cpu/armv7/zynq/built-in.o
                0x1ff00644                lowlevel_init
 .text.ddr2x_get_rate
                0x1ff00668       0x3c arch/arm/cpu/armv7/zynq/built-in.o
 .text.ddr3x_get_rate
                0x1ff006a4       0x3c arch/arm/cpu/armv7/zynq/built-in.o
 .text.zynq_clk_periph_get_rate
                0x1ff006e0       0x68 arch/arm/cpu/armv7/zynq/built-in.o
 .text.__zynq_clk_pll_get_rate
                0x1ff00748       0x20 arch/arm/cpu/armv7/zynq/built-in.o
 .text.zynq_clk_pll_get_rate
                0x1ff00768        0x8 arch/arm/cpu/armv7/zynq/built-in.o
 .text.zynq_clk_periph_set_rate
                0x1ff00770      0x11c arch/arm/cpu/armv7/zynq/built-in.o
 .text.zynq_clk_register_periph_clk
                0x1ff0088c       0x5c arch/arm/cpu/armv7/zynq/built-in.o
 .text.zynq_clk_early_init
                0x1ff008e8       0x58 arch/arm/cpu/armv7/zynq/built-in.o
                0x1ff008e8                zynq_clk_early_init
 .text.get_uart_clk
                0x1ff00940       0x50 arch/arm/cpu/armv7/zynq/built-in.o
                0x1ff00940                get_uart_clk
 .text.set_cpu_clk_info
                0x1ff00990      0x618 arch/arm/cpu/armv7/zynq/built-in.o
                0x1ff00990                set_cpu_clk_info
 .text.zynq_clk_get_rate
                0x1ff00fa8       0x20 arch/arm/cpu/armv7/zynq/built-in.o
                0x1ff00fa8                zynq_clk_get_rate
 .text.zynq_clk_set_rate
                0x1ff00fc8       0x40 arch/arm/cpu/armv7/zynq/built-in.o
                0x1ff00fc8                zynq_clk_set_rate
 .text.soc_clk_dump
                0x1ff01008       0x50 arch/arm/cpu/armv7/zynq/built-in.o
                0x1ff01008                soc_clk_dump
 .text.arch_cpu_init
                0x1ff01058       0x64 arch/arm/cpu/armv7/zynq/built-in.o
                0x1ff01058                arch_cpu_init
 .text.reset_cpu
                0x1ff010bc        0xc arch/arm/cpu/armv7/zynq/built-in.o
                0x1ff010bc                reset_cpu
 .text.enable_caches
                0x1ff010c8        0x4 arch/arm/cpu/armv7/zynq/built-in.o
                0x1ff010c8                enable_caches
 .text.zynq_ddrc_init
                0x1ff010cc       0x64 arch/arm/cpu/armv7/zynq/built-in.o
                0x1ff010cc                zynq_ddrc_init
 .text.zynq_slcr_lock
                0x1ff01130       0x2c arch/arm/cpu/armv7/zynq/built-in.o
                0x1ff01130                zynq_slcr_lock
 .text.zynq_slcr_unlock
                0x1ff0115c       0x2c arch/arm/cpu/armv7/zynq/built-in.o
                0x1ff0115c                zynq_slcr_unlock
 .text.zynq_slcr_cpu_reset
                0x1ff01188       0x24 arch/arm/cpu/armv7/zynq/built-in.o
                0x1ff01188                zynq_slcr_cpu_reset
 .text.zynq_slcr_gem_clk_setup
                0x1ff011ac       0x68 arch/arm/cpu/armv7/zynq/built-in.o
                0x1ff011ac                zynq_slcr_gem_clk_setup
 .text.zynq_slcr_get_idcode
                0x1ff01214       0x10 arch/arm/cpu/armv7/zynq/built-in.o
                0x1ff01214                zynq_slcr_get_idcode
 .text.zynq_slcr_get_mio_pin_status
                0x1ff01224       0x90 arch/arm/cpu/armv7/zynq/built-in.o
                0x1ff01224                zynq_slcr_get_mio_pin_status
 .text.timer_init
                0x1ff012b4       0x60 arch/arm/cpu/armv7/zynq/built-in.o
                0x1ff012b4                timer_init
 .text.get_timer_masked
                0x1ff01314       0x50 arch/arm/cpu/armv7/zynq/built-in.o
                0x1ff01314                get_timer_masked
 .text.__udelay
                0x1ff01364       0x90 arch/arm/cpu/armv7/zynq/built-in.o
                0x1ff01364                __udelay
 .text.get_timer
                0x1ff013f4       0x14 arch/arm/cpu/armv7/zynq/built-in.o
                0x1ff013f4                get_timer
 .text.get_ticks
                0x1ff01408       0x10 arch/arm/cpu/armv7/zynq/built-in.o
                0x1ff01408                get_ticks
 .text.get_tbclk
                0x1ff01418        0x8 arch/arm/cpu/armv7/zynq/built-in.o
                0x1ff01418                get_tbclk
 .text          0x1ff01420       0xe8 arch/arm/lib/built-in.o
                0x1ff01420                _main
                0x1ff014a4                relocate_code
 .text.display_banner
                0x1ff01508       0x20 arch/arm/lib/built-in.o
 .text.init_baudrate
                0x1ff01528       0x2c arch/arm/lib/built-in.o
 .text.mark_bootstage
                0x1ff01554       0x14 arch/arm/lib/built-in.o
 .text.__coloured_LED_init
                0x1ff01568        0x4 arch/arm/lib/built-in.o
                0x1ff01568                coloured_LED_init
                0x1ff01568                __coloured_LED_init
 .text.__red_led_on
                0x1ff0156c        0x4 arch/arm/lib/built-in.o
                0x1ff0156c                __red_led_on
                0x1ff0156c                red_led_on
 .text.__dram_init_banksize
                0x1ff01570       0x1c arch/arm/lib/built-in.o
                0x1ff01570                __dram_init_banksize
                0x1ff01570                dram_init_banksize
 .text.__power_init_board
                0x1ff0158c        0x8 arch/arm/lib/built-in.o
                0x1ff0158c                __power_init_board
                0x1ff0158c                power_init_board
 .text.board_init_f
                0x1ff01594      0x114 arch/arm/lib/built-in.o
                0x1ff01594                board_init_f
 .text.board_init_r
                0x1ff016a8       0xbc arch/arm/lib/built-in.o
                0x1ff016a8                board_init_r
 .text.arch_fixup_memory_node
                0x1ff01764        0x8 arch/arm/lib/built-in.o
                0x1ff01764                arch_fixup_memory_node
 .text.boot_jump_linux
                0x1ff0176c       0xb8 arch/arm/lib/built-in.o
 .text.boot_prep_linux
                0x1ff01824       0x40 arch/arm/lib/built-in.o
 .text.arch_lmb_reserve
                0x1ff01864       0x24 arch/arm/lib/built-in.o
                0x1ff01864                arch_lmb_reserve
 .text.do_bootm_linux
                0x1ff01888       0x60 arch/arm/lib/built-in.o
                0x1ff01888                do_bootm_linux
 .text.boot_prep_vxworks
                0x1ff018e8       0x4c arch/arm/lib/built-in.o
                0x1ff018e8                boot_prep_vxworks
 .text.boot_jump_vxworks
                0x1ff01934       0x14 arch/arm/lib/built-in.o
                0x1ff01934                boot_jump_vxworks
 .text.cp_delay
                0x1ff01948       0x30 arch/arm/lib/built-in.o
 .text.arm_init_domains
                0x1ff01978        0x4 arch/arm/lib/built-in.o
                0x1ff01978                arm_init_domains
 .text.set_section_dcache
                0x1ff0197c       0x14 arch/arm/lib/built-in.o
                0x1ff0197c                set_section_dcache
 .text.mmu_set_region_dcache_behaviour
                0x1ff01990       0x50 arch/arm/lib/built-in.o
                0x1ff01990                mmu_set_region_dcache_behaviour
 .text.dram_bank_mmu_setup
                0x1ff019e0       0x40 arch/arm/lib/built-in.o
                0x1ff019e0                dram_bank_mmu_setup
 .text.icache_enable
                0x1ff01a20       0x18 arch/arm/lib/built-in.o
                0x1ff01a20                icache_enable
 .text.icache_disable
                0x1ff01a38       0x1c arch/arm/lib/built-in.o
                0x1ff01a38                icache_disable
 .text.icache_status
                0x1ff01a54        0xc arch/arm/lib/built-in.o
                0x1ff01a54                icache_status
 .text.dcache_enable
                0x1ff01a60       0x70 arch/arm/lib/built-in.o
                0x1ff01a60                dcache_enable
 .text.dcache_disable
                0x1ff01ad0       0x28 arch/arm/lib/built-in.o
                0x1ff01ad0                dcache_disable
 .text.dcache_status
                0x1ff01af8        0xc arch/arm/lib/built-in.o
                0x1ff01af8                dcache_status
 .text.interrupt_init
                0x1ff01b04       0x1c arch/arm/lib/built-in.o
                0x1ff01b04                interrupt_init
 .text.enable_interrupts
                0x1ff01b20        0x4 arch/arm/lib/built-in.o
                0x1ff01b20                enable_interrupts
 .text.disable_interrupts
                0x1ff01b24        0x8 arch/arm/lib/built-in.o
                0x1ff01b24                disable_interrupts
 .text.bad_mode
                0x1ff01b2c       0x10 arch/arm/lib/built-in.o
                0x1ff01b2c                bad_mode
 .text.show_regs
                0x1ff01b3c      0x13c arch/arm/lib/built-in.o
                0x1ff01b3c                show_regs
 .text.do_undefined_instruction
                0x1ff01c78       0x20 arch/arm/lib/built-in.o
                0x1ff01c78                do_undefined_instruction
 .text.do_software_interrupt
                0x1ff01c98       0x20 arch/arm/lib/built-in.o
                0x1ff01c98                do_software_interrupt
 .text.do_prefetch_abort
                0x1ff01cb8       0x20 arch/arm/lib/built-in.o
                0x1ff01cb8                do_prefetch_abort
 .text.do_data_abort
                0x1ff01cd8       0x20 arch/arm/lib/built-in.o
                0x1ff01cd8                do_data_abort
 .text.do_not_used
                0x1ff01cf8       0x20 arch/arm/lib/built-in.o
                0x1ff01cf8                do_not_used
 .text.do_fiq   0x1ff01d18       0x20 arch/arm/lib/built-in.o
                0x1ff01d18                do_fiq
 .text.do_irq   0x1ff01d38       0x20 arch/arm/lib/built-in.o
                0x1ff01d38                do_irq
 .text.do_reset
                0x1ff01d58       0x2c arch/arm/lib/built-in.o
                0x1ff01d58                do_reset
 .text.board_init
                0x1ff01d84       0xd4 board/xilinx/zynq/built-in.o
                0x1ff01d84                board_init
 .text.board_eth_init
                0x1ff01e58       0x14 board/xilinx/zynq/built-in.o
                0x1ff01e58                board_eth_init
 .text.board_mmc_init
                0x1ff01e6c        0xc board/xilinx/zynq/built-in.o
                0x1ff01e6c                board_mmc_init
 .text.dram_init
                0x1ff01e78       0x18 board/xilinx/zynq/built-in.o
                0x1ff01e78                dram_init
 .text.print_num
                0x1ff01e90       0x18 common/built-in.o
 .text.do_bdinfo
                0x1ff01ea8      0x1bc common/built-in.o
                0x1ff01ea8                do_bdinfo
 .text.do_go_exec
                0x1ff02064       0x18 common/built-in.o
                0x1ff02064                do_go_exec
 .text.do_go    0x1ff0207c       0x70 common/built-in.o
 .text.copy_args
                0x1ff020ec       0x50 common/built-in.o
 .text.do_bootm_standalone
                0x1ff0213c       0x68 common/built-in.o
 .text.do_bootd
                0x1ff021a4       0x24 common/built-in.o
                0x1ff021a4                do_bootd
 .text.image_info
                0x1ff021c8      0x128 common/built-in.o
 .text.do_bootm_rtems
                0x1ff022f0       0x70 common/built-in.o
 .text.do_bootm_plan9
                0x1ff02360       0xd4 common/built-in.o
 .text.do_bootm_netbsd
                0x1ff02434      0x128 common/built-in.o
 .text.do_iminfo
                0x1ff0255c       0x60 common/built-in.o
 .text.__arch_preboot_os
                0x1ff025bc        0x4 common/built-in.o
                0x1ff025bc                arch_preboot_os
 .text.do_bootm_states.isra.19.constprop.21
                0x1ff025c0      0x9ac common/built-in.o
 .text.do_bootm
                0x1ff02f6c       0xdc common/built-in.o
                0x1ff02f6c                do_bootm
 .text.bootm_maybe_autostart
                0x1ff03048       0x78 common/built-in.o
                0x1ff03048                bootm_maybe_autostart
 .text.do_bootvx_fdt
                0x1ff030c0      0x10c common/built-in.o
                0x1ff030c0                do_bootvx_fdt
 .text.do_bootm_vxworks
                0x1ff031cc       0x54 common/built-in.o
 .text.parse_argv
                0x1ff03220       0x60 common/built-in.o
 .text.do_icache
                0x1ff03280       0x88 common/built-in.o
                0x1ff03280                do_icache
 .text.do_dcache
                0x1ff03308       0x88 common/built-in.o
                0x1ff03308                do_dcache
 .text.do_clk   0x1ff03390       0x5c common/built-in.o
 .text.do_clk_dump
                0x1ff033ec        0x4 common/built-in.o
 .text.do_coninfo
                0x1ff033f0       0xbc common/built-in.o
 .text.do_echo  0x1ff034ac       0xb0 common/built-in.o
 .text.do_exit  0x1ff0355c       0x30 common/built-in.o
 .text.do_ext2ls
                0x1ff0358c       0x18 common/built-in.o
                0x1ff0358c                do_ext2ls
 .text.do_ext2load
                0x1ff035a4       0x18 common/built-in.o
                0x1ff035a4                do_ext2load
 .text.do_fat_fsload
                0x1ff035bc       0x18 common/built-in.o
                0x1ff035bc                do_fat_fsload
 .text.do_fat_ls
                0x1ff035d4       0x18 common/built-in.o
 .text.do_fat_fsinfo
                0x1ff035ec       0x90 common/built-in.o
 .text.do_fat_fswrite
                0x1ff0367c       0xfc common/built-in.o
 .text.fdt_valid
                0x1ff03778       0xbc common/built-in.o
 .text.is_printable_string
                0x1ff03834       0x88 common/built-in.o
 .text.print_data
                0x1ff038bc      0x170 common/built-in.o
 .text.set_working_fdt_addr
                0x1ff03a2c       0x1c common/built-in.o
                0x1ff03a2c                set_working_fdt_addr
 .text.do_fdt   0x1ff03a48      0xe7c common/built-in.o
 .text.do_fpga  0x1ff048c4      0x348 common/built-in.o
                0x1ff048c4                do_fpga
 .text.do_help  0x1ff04c0c       0x48 common/built-in.o
 .text.evalexp  0x1ff04c54       0x74 common/built-in.o
 .text.binary_test
                0x1ff04cc8      0x1e4 common/built-in.o
 .text.do_itest
                0x1ff04eac       0x98 common/built-in.o
 .text.bin_data_init
                0x1ff04f44       0x2c common/built-in.o
 .text.k_data_save
                0x1ff04f70       0x4c common/built-in.o
 .text.k_data_restore
                0x1ff04fbc       0x4c common/built-in.o
 .text.write_record
                0x1ff05008       0x2c common/built-in.o
 .text.do_save_serial
                0x1ff05034      0x190 common/built-in.o
                0x1ff05034                do_save_serial
 .text.getcxmodem
                0x1ff051c4       0x20 common/built-in.o
 .text.load_serial_ymodem
                0x1ff051e4       0xcc common/built-in.o
 .text.bin_data_char
                0x1ff052b0       0x2c common/built-in.o
 .text.chk1.constprop.1
                0x1ff052dc       0x2c common/built-in.o
 .text.s1_sendpacket.constprop.2
                0x1ff05308       0x50 common/built-in.o
 .text.load_serial
                0x1ff05358      0x1f8 common/built-in.o
 .text.do_load_serial
                0x1ff05550       0xdc common/built-in.o
 .text.do_load_serial_bin
                0x1ff0562c      0x790 common/built-in.o
 .text.do_mem_mw
                0x1ff05dbc       0xc0 common/built-in.o
 .text.do_mem_loop
                0x1ff05e7c       0xf8 common/built-in.o
 .text.do_mem_md
                0x1ff05f74       0xe8 common/built-in.o
 .text.do_mem_cmp
                0x1ff0605c      0x154 common/built-in.o
 .text.do_mem_base
                0x1ff061b0       0x40 common/built-in.o
 .text.do_mem_cp
                0x1ff061f0       0xd8 common/built-in.o
 .text.do_mem_crc
                0x1ff062c8       0x4c common/built-in.o
 .text.mod_mem.isra.2
                0x1ff06314      0x168 common/built-in.o
 .text.do_mem_mm
                0x1ff0647c        0x8 common/built-in.o
 .text.do_mem_nm
                0x1ff06484        0x8 common/built-in.o
 .text.do_sleep
                0x1ff0648c       0x70 common/built-in.o
 .text.do_mmcops
                0x1ff064fc      0x504 common/built-in.o
 .text.do_mmcinfo
                0x1ff06a00      0x180 common/built-in.o
 .text.netboot_common
                0x1ff06b80      0x274 common/built-in.o
 .text.do_bootp
                0x1ff06df4        0xc common/built-in.o
 .text.do_dhcp  0x1ff06e00        0xc common/built-in.o
 .text.do_nfs   0x1ff06e0c        0xc common/built-in.o
 .text.do_tftpb
                0x1ff06e18       0x40 common/built-in.o
                0x1ff06e18                do_tftpb
 .text.do_ping  0x1ff06e58       0x74 common/built-in.o
 .text.do_env_delete
                0x1ff06ecc       0xa4 common/built-in.o
 .text.do_env_save
                0x1ff06f70       0x2c common/built-in.o
 .text.do_env   0x1ff06f9c       0x5c common/built-in.o
 .text.env_print
                0x1ff06ff8       0xc0 common/built-in.o
 .text.do_env_print
                0x1ff070b8       0xc8 common/built-in.o
 .text.do_env_import
                0x1ff07180      0x244 common/built-in.o
 .text.do_env_default
                0x1ff073c4       0xb8 common/built-in.o
 .text._do_env_set.isra.0
                0x1ff0747c      0x1c4 common/built-in.o
 .text.do_env_set
                0x1ff07640       0x1c common/built-in.o
 .text.do_env_ask
                0x1ff0765c      0x164 common/built-in.o
                0x1ff0765c                do_env_ask
 .text.get_env_id
                0x1ff077c0       0x10 common/built-in.o
                0x1ff077c0                get_env_id
 .text.setenv   0x1ff077d0       0x58 common/built-in.o
                0x1ff077d0                setenv
 .text.setenv_ulong
                0x1ff07828       0x20 common/built-in.o
                0x1ff07828                setenv_ulong
 .text.setenv_hex
                0x1ff07848       0x34 common/built-in.o
                0x1ff07848                setenv_hex
 .text.do_env_export
                0x1ff0787c      0x274 common/built-in.o
 .text.envmatch
                0x1ff07af0       0x70 common/built-in.o
                0x1ff07af0                envmatch
 .text.getenv_f
                0x1ff07b60       0xc8 common/built-in.o
                0x1ff07b60                getenv_f
 .text.getenv   0x1ff07c28       0x78 common/built-in.o
                0x1ff07c28                getenv
 .text.getenv_hex
                0x1ff07ca0       0x3c common/built-in.o
                0x1ff07ca0                getenv_hex
 .text.getenv_ulong
                0x1ff07cdc       0x30 common/built-in.o
                0x1ff07cdc                getenv_ulong
 .text.do_env_edit
                0x1ff07d0c       0x74 common/built-in.o
 .text.bytes_per_second
                0x1ff07d80       0x50 common/built-in.o
 .text.do_spi_flash
                0x1ff07dd0      0x750 common/built-in.o
 .text.source   0x1ff08520      0x1c8 common/built-in.o
                0x1ff08520                source
 .text.do_source
                0x1ff086e8       0x70 common/built-in.o
                0x1ff086e8                do_source
 .text.do_spi   0x1ff08758      0x264 common/built-in.o
                0x1ff08758                do_spi
 .text.do_false
                0x1ff089bc        0x8 common/built-in.o
 .text.do_true  0x1ff089c4        0x8 common/built-in.o
 .text.do_test  0x1ff089cc      0x464 common/built-in.o
 .text.do_version
                0x1ff08e30       0x38 common/built-in.o
 .text.do_imgextract
                0x1ff08e68      0x3ac common/built-in.o
 .text.find_cmd_tbl
                0x1ff09214       0xa4 common/built-in.o
                0x1ff09214                find_cmd_tbl
 .text.find_cmd
                0x1ff092b8       0x28 common/built-in.o
                0x1ff092b8                find_cmd
 .text.cmd_usage
                0x1ff092e0       0x5c common/built-in.o
                0x1ff092e0                cmd_usage
 .text._do_help
                0x1ff0933c      0x184 common/built-in.o
                0x1ff0933c                _do_help
 .text.cmd_get_data_size
                0x1ff094c0       0x5c common/built-in.o
                0x1ff094c0                cmd_get_data_size
 .text.cmd_process
                0x1ff0951c       0xe8 common/built-in.o
                0x1ff0951c                cmd_process
 .text.console_setfile
                0x1ff09604       0xa0 common/built-in.o
 .text.serial_printf
                0x1ff096a4       0x4c common/built-in.o
                0x1ff096a4                serial_printf
 .text.fgetc    0x1ff096f0       0x2c common/built-in.o
                0x1ff096f0                fgetc
 .text.ftstc    0x1ff0971c       0x2c common/built-in.o
                0x1ff0971c                ftstc
 .text.fputc    0x1ff09748       0x28 common/built-in.o
                0x1ff09748                fputc
 .text.getc     0x1ff09770       0x24 common/built-in.o
                0x1ff09770                getc
 .text.tstc     0x1ff09794       0x24 common/built-in.o
                0x1ff09794                tstc
 .text.putc     0x1ff097b8       0x28 common/built-in.o
                0x1ff097b8                putc
 .text.puts     0x1ff097e0       0x3c common/built-in.o
                0x1ff097e0                puts
 .text.printf   0x1ff0981c       0x58 common/built-in.o
                0x1ff0981c                printf
 .text.vprintf  0x1ff09874       0x48 common/built-in.o
                0x1ff09874                vprintf
 .text.ctrlc    0x1ff098bc       0x58 common/built-in.o
                0x1ff098bc                ctrlc
 .text.had_ctrlc
                0x1ff09914       0x10 common/built-in.o
                0x1ff09914                had_ctrlc
 .text.clear_ctrlc
                0x1ff09924       0x14 common/built-in.o
                0x1ff09924                clear_ctrlc
 .text.search_device
                0x1ff09938       0x30 common/built-in.o
                0x1ff09938                search_device
 .text.console_assign
                0x1ff09968       0x44 common/built-in.o
                0x1ff09968                console_assign
 .text.on_console
                0x1ff099ac       0xb8 common/built-in.o
 .text.console_init_f
                0x1ff09a64       0x10 common/built-in.o
                0x1ff09a64                console_init_f
 .text.stdio_print_current_devices
                0x1ff09a74       0xb0 common/built-in.o
                0x1ff09a74                stdio_print_current_devices
 .text.console_init_r
                0x1ff09b24      0x154 common/built-in.o
                0x1ff09b24                console_init_r
 .text.sbrk     0x1ff09c78       0x70 common/built-in.o
                0x1ff09c78                sbrk
 .text.mem_malloc_init
                0x1ff09ce8       0x34 common/built-in.o
                0x1ff09ce8                mem_malloc_init
 .text.malloc_trim
                0x1ff09d1c       0xcc common/built-in.o
                0x1ff09d1c                malloc_trim
 .text.free     0x1ff09de8      0x230 common/built-in.o
                0x1ff09de8                free
 .text.malloc   0x1ff0a018      0x5dc common/built-in.o
                0x1ff0a018                malloc
 .text.calloc   0x1ff0a5f4       0xdc common/built-in.o
                0x1ff0a5f4                calloc
 .text.realloc  0x1ff0a6d0      0x4c0 common/built-in.o
                0x1ff0a6d0                realloc
 .text.memalign
                0x1ff0ab90      0x10c common/built-in.o
                0x1ff0ab90                memalign
 .text.env_attr_walk
                0x1ff0ac9c      0x110 common/built-in.o
                0x1ff0ac9c                env_attr_walk
 .text.env_attr_lookup
                0x1ff0adac      0x184 common/built-in.o
                0x1ff0adac                env_attr_lookup
 .text.clear_callback
                0x1ff0af30       0x10 common/built-in.o
 .text.find_env_callback
                0x1ff0af40       0x64 common/built-in.o
 .text.on_callbacks
                0x1ff0afa4       0x48 common/built-in.o
 .text.set_callback
                0x1ff0afec       0x94 common/built-in.o
 .text.env_callback_init
                0x1ff0b080       0xc4 common/built-in.o
                0x1ff0b080                env_callback_init
 .text.__env_get_char_spec
                0x1ff0b144        0xc common/built-in.o
                0x1ff0b144                env_get_char_spec
 .text.env_get_addr
                0x1ff0b150       0x20 common/built-in.o
                0x1ff0b150                env_get_addr
 .text.env_get_char_memory
                0x1ff0b170       0x10 common/built-in.o
                0x1ff0b170                env_get_char_memory
 .text.env_get_char
                0x1ff0b180       0x30 common/built-in.o
                0x1ff0b180                env_get_char
 .text.getenv_yesno
                0x1ff0b1b0       0x48 common/built-in.o
                0x1ff0b1b0                getenv_yesno
 .text.getenv_default
                0x1ff0b1f8       0x30 common/built-in.o
                0x1ff0b1f8                getenv_default
 .text.set_default_env
                0x1ff0b228       0xbc common/built-in.o
                0x1ff0b228                set_default_env
 .text.set_default_vars
                0x1ff0b2e4       0x34 common/built-in.o
                0x1ff0b2e4                set_default_vars
 .text.env_import
                0x1ff0b318       0xe0 common/built-in.o
                0x1ff0b318                env_import
 .text.env_relocate
                0x1ff0b3f8       0x30 common/built-in.o
                0x1ff0b3f8                env_relocate
 .text.skip_num
                0x1ff0b428       0x74 common/built-in.o
 .text.clear_flags
                0x1ff0b49c       0x10 common/built-in.o
 .text.on_flags
                0x1ff0b4ac       0x48 common/built-in.o
 .text.env_flags_parse_vartype
                0x1ff0b4f4       0x50 common/built-in.o
                0x1ff0b4f4                env_flags_parse_vartype
 .text.env_flags_parse_varaccess
                0x1ff0b544       0x58 common/built-in.o
                0x1ff0b544                env_flags_parse_varaccess
 .text.set_flags
                0x1ff0b59c       0xac common/built-in.o
 .text.env_flags_init
                0x1ff0b648       0xd8 common/built-in.o
                0x1ff0b648                env_flags_init
 .text.env_flags_validate
                0x1ff0b720      0x30c common/built-in.o
                0x1ff0b720                env_flags_validate
 .text.saveenv  0x1ff0ba2c      0x174 common/built-in.o
                0x1ff0ba2c                saveenv
 .text.env_relocate_spec
                0x1ff0bba0       0xa4 common/built-in.o
                0x1ff0bba0                env_relocate_spec
 .text.env_init
                0x1ff0bc44       0x1c common/built-in.o
                0x1ff0bc44                env_init
 .text.dummy    0x1ff0bc60        0x4 common/built-in.o
 .text.get_version
                0x1ff0bc64        0x8 common/built-in.o
                0x1ff0bc64                get_version
 .text.jumptable_init
                0x1ff0bc6c      0x1c0 common/built-in.o
                0x1ff0bc6c                jumptable_init
 .text.write_cell
                0x1ff0be2c       0x4c common/built-in.o
 .text.get_cells_len
                0x1ff0be78       0x3c common/built-in.o
 .text.fdt_find_and_setprop
                0x1ff0beb4       0x70 common/built-in.o
                0x1ff0beb4                fdt_find_and_setprop
 .text.fdt_initrd
                0x1ff0bf24      0x1e4 common/built-in.o
                0x1ff0bf24                fdt_initrd
 .text.fdt_chosen
                0x1ff0c108      0x114 common/built-in.o
                0x1ff0c108                fdt_chosen
 .text.do_fixup_by_path
                0x1ff0c21c       0x54 common/built-in.o
                0x1ff0c21c                do_fixup_by_path
 .text.fdt_fixup_memory_banks
                0x1ff0c270      0x1a8 common/built-in.o
                0x1ff0c270                fdt_fixup_memory_banks
 .text.fdt_fixup_memory
                0x1ff0c418       0x24 common/built-in.o
                0x1ff0c418                fdt_fixup_memory
 .text.fdt_fixup_ethernet
                0x1ff0c43c      0x12c common/built-in.o
                0x1ff0c43c                fdt_fixup_ethernet
 .text.fdt_resize
                0x1ff0c568       0xd0 common/built-in.o
                0x1ff0c568                fdt_resize
 .text.hash_command
                0x1ff0c638       0xa0 common/built-in.o
                0x1ff0c638                hash_command
 .text.b_reset  0x1ff0c6d8       0x1c common/built-in.o
 .text.static_get
                0x1ff0c6f4       0x1c common/built-in.o
 .text.static_peek
                0x1ff0c710        0xc common/built-in.o
 .text.file_peek
                0x1ff0c71c        0xc common/built-in.o
 .text.mapset   0x1ff0c728       0x20 common/built-in.o
 .text.syntax_err
                0x1ff0c748        0xc common/built-in.o
 .text.free_pipe_list
                0x1ff0c754       0xe8 common/built-in.o
 .text.xmalloc  0x1ff0c83c       0x20 common/built-in.o
 .text.new_pipe
                0x1ff0c85c       0x28 common/built-in.o
 .text.xrealloc
                0x1ff0c884       0x20 common/built-in.o
 .text.done_command
                0x1ff0c8a4       0x88 common/built-in.o
 .text.done_pipe
                0x1ff0c92c       0x4c common/built-in.o
 .text.done_word
                0x1ff0c978      0x2a8 common/built-in.o
 .text.do_showvar
                0x1ff0cc20       0xf0 common/built-in.o
 .text.is_assignment
                0x1ff0cd10       0x54 common/built-in.o
 .text.file_get
                0x1ff0cd64      0x1d0 common/built-in.o
 .text.b_addchr
                0x1ff0cf34       0x80 common/built-in.o
 .text.b_addqchr
                0x1ff0cfb4       0x50 common/built-in.o
 .text.get_local_var
                0x1ff0d004       0x94 common/built-in.o
                0x1ff0d004                get_local_var
 .text.set_local_var
                0x1ff0d098      0x1a8 common/built-in.o
                0x1ff0d098                set_local_var
 .text.insert_var_value_sub
                0x1ff0d240      0x2a8 common/built-in.o
 .text.parse_string_outer
                0x1ff0d4e8       0xe4 common/built-in.o
                0x1ff0d4e8                parse_string_outer
 .text.run_list_real
                0x1ff0d5cc      0x794 common/built-in.o
 .text.parse_stream_outer
                0x1ff0dd60      0x6a0 common/built-in.o
 .text.parse_file_outer
                0x1ff0e400       0x44 common/built-in.o
                0x1ff0e400                parse_file_outer
 .text.u_boot_hush_start
                0x1ff0e444       0x54 common/built-in.o
                0x1ff0e444                u_boot_hush_start
 .text.fdt_error
                0x1ff0e498       0x2c common/built-in.o
 .text.boot_fdt_add_mem_rsv_regions
                0x1ff0e4c4       0x88 common/built-in.o
                0x1ff0e4c4                boot_fdt_add_mem_rsv_regions
 .text.boot_relocate_fdt
                0x1ff0e54c      0x194 common/built-in.o
                0x1ff0e54c                boot_relocate_fdt
 .text.boot_get_fdt
                0x1ff0e6e0      0x390 common/built-in.o
                0x1ff0e6e0                boot_get_fdt
 .text.ft_verify_fdt
                0x1ff0ea70        0x8 common/built-in.o
                0x1ff0ea70                ft_verify_fdt
 .text.image_setup_libfdt
                0x1ff0ea78       0xd8 common/built-in.o
                0x1ff0ea78                image_setup_libfdt
 .text.fit_parse_conf
                0x1ff0eb50       0x64 common/built-in.o
                0x1ff0eb50                fit_parse_conf
 .text.fit_parse_subimage
                0x1ff0ebb4       0x64 common/built-in.o
                0x1ff0ebb4                fit_parse_subimage
 .text.fit_get_desc
                0x1ff0ec18       0x30 common/built-in.o
                0x1ff0ec18                fit_get_desc
 .text.fit_image_get_node
                0x1ff0ec48       0x30 common/built-in.o
                0x1ff0ec48                fit_image_get_node
 .text.fit_image_get_os
                0x1ff0ec78       0x3c common/built-in.o
                0x1ff0ec78                fit_image_get_os
 .text.fit_image_get_arch
                0x1ff0ecb4       0x3c common/built-in.o
                0x1ff0ecb4                fit_image_get_arch
 .text.fit_image_get_type
                0x1ff0ecf0       0x3c common/built-in.o
                0x1ff0ecf0                fit_image_get_type
 .text.fit_image_get_comp
                0x1ff0ed2c       0x3c common/built-in.o
                0x1ff0ed2c                fit_image_get_comp
 .text.fit_image_get_load
                0x1ff0ed68       0x38 common/built-in.o
                0x1ff0ed68                fit_image_get_load
 .text.fit_image_get_entry
                0x1ff0eda0       0x38 common/built-in.o
                0x1ff0eda0                fit_image_get_entry
 .text.fit_image_get_data
                0x1ff0edd8       0x40 common/built-in.o
                0x1ff0edd8                fit_image_get_data
 .text.fit_image_hash_get_algo
                0x1ff0ee18       0x30 common/built-in.o
                0x1ff0ee18                fit_image_hash_get_algo
 .text.fit_image_hash_get_value
                0x1ff0ee48       0x40 common/built-in.o
                0x1ff0ee48                fit_image_hash_get_value
 .text.fit_image_print_data
                0x1ff0ee88      0x140 common/built-in.o
 .text.fit_image_print
                0x1ff0efc8      0x334 common/built-in.o
                0x1ff0efc8                fit_image_print
 .text.calculate_hash
                0x1ff0f2fc       0xc8 common/built-in.o
                0x1ff0f2fc                calculate_hash
 .text.fit_image_verify
                0x1ff0f3c4      0x218 common/built-in.o
                0x1ff0f3c4                fit_image_verify
 .text.fit_all_image_verify
                0x1ff0f5dc       0xe4 common/built-in.o
                0x1ff0f5dc                fit_all_image_verify
 .text.fit_image_check_os
                0x1ff0f6c0       0x34 common/built-in.o
                0x1ff0f6c0                fit_image_check_os
 .text.fit_image_check_arch
                0x1ff0f6f4       0x34 common/built-in.o
                0x1ff0f6f4                fit_image_check_arch
 .text.fit_image_check_type
                0x1ff0f728       0x34 common/built-in.o
                0x1ff0f728                fit_image_check_type
 .text.fit_image_check_comp
                0x1ff0f75c       0x34 common/built-in.o
                0x1ff0f75c                fit_image_check_comp
 .text.fit_check_format
                0x1ff0f790       0x40 common/built-in.o
                0x1ff0f790                fit_check_format
 .text.fit_conf_get_node
                0x1ff0f7d0       0x68 common/built-in.o
                0x1ff0f7d0                fit_conf_get_node
 .text.fit_conf_get_prop_node
                0x1ff0f838       0x2c common/built-in.o
                0x1ff0f838                fit_conf_get_prop_node
 .text.fit_conf_print
                0x1ff0f864      0x108 common/built-in.o
                0x1ff0f864                fit_conf_print
 .text.fit_print_contents
                0x1ff0f96c      0x1e4 common/built-in.o
                0x1ff0f96c                fit_print_contents
 .text.fit_image_select
                0x1ff0fb50       0x6c common/built-in.o
                0x1ff0fb50                fit_image_select
 .text.fit_get_node_from_config
                0x1ff0fbbc       0x44 common/built-in.o
                0x1ff0fbbc                fit_get_node_from_config
 .text.fit_image_load
                0x1ff0fc00      0x480 common/built-in.o
                0x1ff0fc00                fit_image_load
 .text.on_loadaddr
                0x1ff10080       0x38 common/built-in.o
 .text.image_check_hcrc
                0x1ff100b8       0x4c common/built-in.o
                0x1ff100b8                image_check_hcrc
 .text.image_check_dcrc
                0x1ff10104       0x38 common/built-in.o
                0x1ff10104                image_check_dcrc
 .text.image_multi_count
                0x1ff1013c       0x1c common/built-in.o
                0x1ff1013c                image_multi_count
 .text.image_multi_getimg
                0x1ff10158       0x80 common/built-in.o
                0x1ff10158                image_multi_getimg
 .text.getenv_bootm_low
                0x1ff101d8       0x28 common/built-in.o
                0x1ff101d8                getenv_bootm_low
 .text.getenv_bootm_size
                0x1ff10200       0x5c common/built-in.o
                0x1ff10200                getenv_bootm_size
 .text.getenv_bootm_mapsize
                0x1ff1025c       0x30 common/built-in.o
                0x1ff1025c                getenv_bootm_mapsize
 .text.memmove_wd
                0x1ff1028c        0xc common/built-in.o
                0x1ff1028c                memmove_wd
 .text.genimg_print_size
                0x1ff10298       0x30 common/built-in.o
                0x1ff10298                genimg_print_size
 .text.get_table_entry_name
                0x1ff102c8       0x2c common/built-in.o
                0x1ff102c8                get_table_entry_name
 .text.genimg_get_os_name
                0x1ff102f4       0x18 common/built-in.o
                0x1ff102f4                genimg_get_os_name
 .text.genimg_get_arch_name
                0x1ff1030c       0x18 common/built-in.o
                0x1ff1030c                genimg_get_arch_name
 .text.genimg_get_type_name
                0x1ff10324       0x18 common/built-in.o
                0x1ff10324                genimg_get_type_name
 .text.genimg_get_comp_name
                0x1ff1033c       0x18 common/built-in.o
                0x1ff1033c                genimg_get_comp_name
 .text.image_print_contents
                0x1ff10354      0x16c common/built-in.o
                0x1ff10354                image_print_contents
 .text.get_table_entry_id
                0x1ff104c0       0x50 common/built-in.o
                0x1ff104c0                get_table_entry_id
 .text.genimg_get_os_id
                0x1ff10510       0x18 common/built-in.o
                0x1ff10510                genimg_get_os_id
 .text.genimg_get_arch_id
                0x1ff10528       0x18 common/built-in.o
                0x1ff10528                genimg_get_arch_id
 .text.genimg_get_type_id
                0x1ff10540       0x18 common/built-in.o
                0x1ff10540                genimg_get_type_id
 .text.genimg_get_comp_id
                0x1ff10558       0x18 common/built-in.o
                0x1ff10558                genimg_get_comp_id
 .text.genimg_get_format
                0x1ff10570       0x38 common/built-in.o
                0x1ff10570                genimg_get_format
 .text.genimg_get_image
                0x1ff105a8        0x4 common/built-in.o
                0x1ff105a8                genimg_get_image
 .text.genimg_has_config
                0x1ff105ac       0x10 common/built-in.o
                0x1ff105ac                genimg_has_config
 .text.boot_get_ramdisk
                0x1ff105bc      0x348 common/built-in.o
                0x1ff105bc                boot_get_ramdisk
 .text.boot_ramdisk_high
                0x1ff10904      0x128 common/built-in.o
                0x1ff10904                boot_ramdisk_high
 .text.image_setup_linux
                0x1ff10a2c       0x8c common/built-in.o
                0x1ff10a2c                image_setup_linux
 .text.delete_char.part.0
                0x1ff10ab8       0xd0 common/built-in.o
 .text.cread_add_char
                0x1ff10b88       0xe8 common/built-in.o
 .text.__show_boot_progress
                0x1ff10c70        0x4 common/built-in.o
                0x1ff10c70                __show_boot_progress
                0x1ff10c70                show_boot_progress
 .text.readline_into_buffer
                0x1ff10c74      0x8fc common/built-in.o
                0x1ff10c74                readline_into_buffer
 .text.readline
                0x1ff11570       0x14 common/built-in.o
                0x1ff11570                readline
 .text.run_command
                0x1ff11584        0x8 common/built-in.o
                0x1ff11584                run_command
 .text.run_command_list
                0x1ff1158c       0x5c common/built-in.o
                0x1ff1158c                run_command_list
 .text.main_loop
                0x1ff115e8      0x12c common/built-in.o
                0x1ff115e8                main_loop
 .text.do_run   0x1ff11714       0x74 common/built-in.o
                0x1ff11714                do_run
 .text.legacy_miiphy_read
                0x1ff11788       0x34 common/built-in.o
 .text.legacy_miiphy_write
                0x1ff117bc       0x24 common/built-in.o
 .text.miiphy_get_dev_by_name
                0x1ff117e0       0x5c common/built-in.o
                0x1ff117e0                miiphy_get_dev_by_name
 .text.miiphy_init
                0x1ff1183c       0x24 common/built-in.o
                0x1ff1183c                miiphy_init
 .text.mdio_alloc
                0x1ff11860       0x30 common/built-in.o
                0x1ff11860                mdio_alloc
 .text.miiphy_register
                0x1ff11890      0x108 common/built-in.o
                0x1ff11890                miiphy_register
 .text.hex1_bin
                0x1ff11998       0x48 common/built-in.o
 .text.hex2_bin
                0x1ff119e0       0x38 common/built-in.o
 .text.srec_decode
                0x1ff11a18      0x254 common/built-in.o
                0x1ff11a18                srec_decode
 .text.stdio_get_list
                0x1ff11c6c        0xc common/built-in.o
                0x1ff11c6c                stdio_get_list
 .text.stdio_get_by_name
                0x1ff11c78       0x4c common/built-in.o
                0x1ff11c78                stdio_get_by_name
 .text.stdio_clone
                0x1ff11cc4       0x40 common/built-in.o
                0x1ff11cc4                stdio_clone
 .text.stdio_register
                0x1ff11d04       0x44 common/built-in.o
                0x1ff11d04                stdio_register
 .text.stdio_init
                0x1ff11d48       0x90 common/built-in.o
                0x1ff11d48                stdio_init
 .text.CYGACC_COMM_IF_GETC_TIMEOUT.isra.0
                0x1ff11dd8       0x4c common/built-in.o
 .text.xyzModem_flush
                0x1ff11e24       0x1c common/built-in.o
 .text.xyzModem_get_hdr
                0x1ff11e40      0x230 common/built-in.o
 .text.xyzModem_stream_open
                0x1ff12070      0x258 common/built-in.o
                0x1ff12070                xyzModem_stream_open
 .text.xyzModem_stream_read
                0x1ff122c8      0x24c common/built-in.o
                0x1ff122c8                xyzModem_stream_read
 .text.xyzModem_stream_close
                0x1ff12514       0x54 common/built-in.o
                0x1ff12514                xyzModem_stream_close
 .text.xyzModem_stream_terminate
                0x1ff12568       0x94 common/built-in.o
                0x1ff12568                xyzModem_stream_terminate
 .text.xyzModem_error
                0x1ff125fc       0x20 common/built-in.o
                0x1ff125fc                xyzModem_error
 .text.get_dev  0x1ff1261c       0x60 disk/built-in.o
                0x1ff1261c                get_dev
 .text.dev_print
                0x1ff1267c      0x218 disk/built-in.o
                0x1ff1267c                dev_print
 .text.init_part
                0x1ff12894       0x20 disk/built-in.o
                0x1ff12894                init_part
 .text.print_part
                0x1ff128b4       0xf8 disk/built-in.o
                0x1ff128b4                print_part
 .text.get_partition_info
                0x1ff129ac       0x28 disk/built-in.o
                0x1ff129ac                get_partition_info
 .text.get_device
                0x1ff129d4       0x84 disk/built-in.o
                0x1ff129d4                get_device
 .text.get_device_and_partition
                0x1ff12a58      0x458 disk/built-in.o
                0x1ff12a58                get_device_and_partition
 .text.test_block_type
                0x1ff12eb0       0x7c disk/built-in.o
 .text.print_partition_extended
                0x1ff12f2c      0x25c disk/built-in.o
 .text.get_partition_info_extended.constprop.2
                0x1ff13188      0x2b4 disk/built-in.o
 .text.test_part_dos
                0x1ff1343c       0x60 disk/built-in.o
                0x1ff1343c                test_part_dos
 .text.print_part_dos
                0x1ff1349c       0x34 disk/built-in.o
                0x1ff1349c                print_part_dos
 .text.get_partition_info_dos
                0x1ff134d0       0x20 disk/built-in.o
                0x1ff134d0                get_partition_info_dos
 .text.fpga_no_sup
                0x1ff134f0       0x4c drivers/built-in.o
 .text.fpga_get_desc
                0x1ff1353c       0x34 drivers/built-in.o
                0x1ff1353c                fpga_get_desc
 .text.fpga_dev_info
                0x1ff13570       0x88 drivers/built-in.o
 .text.fpga_validate
                0x1ff135f8       0x54 drivers/built-in.o
                0x1ff135f8                fpga_validate
 .text.fpga_init
                0x1ff1364c       0x20 drivers/built-in.o
                0x1ff1364c                fpga_init
 .text.fpga_count
                0x1ff1366c       0x10 drivers/built-in.o
                0x1ff1366c                fpga_count
 .text.fpga_add
                0x1ff1367c       0xa0 drivers/built-in.o
                0x1ff1367c                fpga_add
 .text.fpga_loadbitstream
                0x1ff1371c       0x18 drivers/built-in.o
                0x1ff1371c                fpga_loadbitstream
 .text.fpga_load
                0x1ff13734       0x80 drivers/built-in.o
                0x1ff13734                fpga_load
 .text.fpga_dump
                0x1ff137b4       0x80 drivers/built-in.o
                0x1ff137b4                fpga_dump
 .text.fpga_info
                0x1ff13834       0x74 drivers/built-in.o
                0x1ff13834                fpga_info
 .text.mmc_set_ios
                0x1ff138a8       0x10 drivers/mmc/built-in.o
 .text.mmc_set_capacity
                0x1ff138b8       0xac drivers/mmc/built-in.o
 .text.board_mmc_getwp
                0x1ff13964        0x8 drivers/mmc/built-in.o
                0x1ff13964                board_mmc_getwp
 .text.mmc_getwp
                0x1ff1396c       0x34 drivers/mmc/built-in.o
                0x1ff1396c                mmc_getwp
 .text.__board_mmc_getcd
                0x1ff139a0        0x8 drivers/mmc/built-in.o
                0x1ff139a0                __board_mmc_getcd
                0x1ff139a0                board_mmc_getcd
 .text.mmc_send_cmd
                0x1ff139a8       0x10 drivers/mmc/built-in.o
                0x1ff139a8                mmc_send_cmd
 .text.mmc_go_idle
                0x1ff139b8       0x4c drivers/mmc/built-in.o
 .text.mmc_send_op_cond_iter
                0x1ff13a04       0x7c drivers/mmc/built-in.o
 .text.mmc_send_ext_csd
                0x1ff13a80       0x4c drivers/mmc/built-in.o
 .text.mmc_send_status
                0x1ff13acc       0xc4 drivers/mmc/built-in.o
                0x1ff13acc                mmc_send_status
 .text.mmc_switch.isra.1
                0x1ff13b90       0x54 drivers/mmc/built-in.o
 .text.mmc_set_blocklen
                0x1ff13be4       0x30 drivers/mmc/built-in.o
                0x1ff13be4                mmc_set_blocklen
 .text.find_mmc_device
                0x1ff13c14       0x4c drivers/mmc/built-in.o
                0x1ff13c14                find_mmc_device
 .text.mmc_bread
                0x1ff13c60      0x138 drivers/mmc/built-in.o
 .text.mmc_send_op_cond
                0x1ff13d98       0x74 drivers/mmc/built-in.o
                0x1ff13d98                mmc_send_op_cond
 .text.mmc_complete_op_cond
                0x1ff13e0c       0x88 drivers/mmc/built-in.o
                0x1ff13e0c                mmc_complete_op_cond
 .text.mmc_switch_part
                0x1ff13e94       0x4c drivers/mmc/built-in.o
                0x1ff13e94                mmc_switch_part
 .text.mmc_getcd
                0x1ff13ee0       0x34 drivers/mmc/built-in.o
                0x1ff13ee0                mmc_getcd
 .text.mmc_set_clock
                0x1ff13f14       0x20 drivers/mmc/built-in.o
                0x1ff13f14                mmc_set_clock
 .text.mmc_startup
                0x1ff13f34      0xb60 drivers/mmc/built-in.o
 .text.mmc_register
                0x1ff14a94       0x98 drivers/mmc/built-in.o
                0x1ff14a94                mmc_register
 .text.mmc_start_init
                0x1ff14b2c      0x208 drivers/mmc/built-in.o
                0x1ff14b2c                mmc_start_init
 .text.mmc_init
                0x1ff14d34       0x90 drivers/mmc/built-in.o
                0x1ff14d34                mmc_init
 .text.mmc_get_dev
                0x1ff14dc4       0x2c drivers/mmc/built-in.o
                0x1ff14dc4                mmc_get_dev
 .text.mmc_set_dsr
                0x1ff14df0        0xc drivers/mmc/built-in.o
                0x1ff14df0                mmc_set_dsr
 .text.__def_mmc_init
                0x1ff14dfc        0x8 drivers/mmc/built-in.o
                0x1ff14dfc                cpu_mmc_init
 .text.print_mmc_devices
                0x1ff14e04       0x68 drivers/mmc/built-in.o
                0x1ff14e04                print_mmc_devices
 .text.get_mmc_num
                0x1ff14e6c       0x10 drivers/mmc/built-in.o
                0x1ff14e6c                get_mmc_num
 .text.mmc_initialize
                0x1ff14e7c       0x78 drivers/mmc/built-in.o
                0x1ff14e7c                mmc_initialize
 .text.mmc_berase
                0x1ff14ef4      0x190 drivers/mmc/built-in.o
                0x1ff14ef4                mmc_berase
 .text.mmc_bwrite
                0x1ff15084      0x15c drivers/mmc/built-in.o
                0x1ff15084                mmc_bwrite
 .text.sdhci_set_ios
                0x1ff151e0      0x1cc drivers/mmc/built-in.o
                0x1ff151e0                sdhci_set_ios
 .text.sdhci_init
                0x1ff153ac      0x194 drivers/mmc/built-in.o
                0x1ff153ac                sdhci_init
 .text.sdhci_reset
                0x1ff15540       0x60 drivers/mmc/built-in.o
 .text.sdhci_send_command
                0x1ff155a0      0x3d4 drivers/mmc/built-in.o
                0x1ff155a0                sdhci_send_command
 .text.add_sdhci
                0x1ff15974      0x194 drivers/mmc/built-in.o
                0x1ff15974                add_sdhci
 .text.zynq_sdhci_init
                0x1ff15b08       0x70 drivers/mmc/built-in.o
                0x1ff15b08                zynq_sdhci_init
 .text.spi_flash_read_write
                0x1ff15b78       0x84 drivers/mtd/spi/built-in.o
 .text.spi_flash_cmd_read
                0x1ff15bfc       0x20 drivers/mtd/spi/built-in.o
                0x1ff15bfc                spi_flash_cmd_read
 .text.spi_flash_cmd
                0x1ff15c1c       0x2c drivers/mtd/spi/built-in.o
                0x1ff15c1c                spi_flash_cmd
 .text.spi_flash_cmd_write
                0x1ff15c48       0x20 drivers/mtd/spi/built-in.o
                0x1ff15c48                spi_flash_cmd_write
 .text.spi_flash_dual_flash
                0x1ff15c68       0x5c drivers/mtd/spi/built-in.o
 .text.spi_flash_cmd_wait_ready
                0x1ff15cc4       0xe8 drivers/mtd/spi/built-in.o
                0x1ff15cc4                spi_flash_cmd_wait_ready
 .text.spi_flash_write_common
                0x1ff15dac       0x9c drivers/mtd/spi/built-in.o
                0x1ff15dac                spi_flash_write_common
 .text.spi_flash_bank
                0x1ff15e48       0x64 drivers/mtd/spi/built-in.o
 .text.spi_flash_cmd_erase_ops
                0x1ff15eac       0xd4 drivers/mtd/spi/built-in.o
                0x1ff15eac                spi_flash_cmd_erase_ops
 .text.spi_flash_cmd_write_ops
                0x1ff15f80       0xe0 drivers/mtd/spi/built-in.o
                0x1ff15f80                spi_flash_cmd_write_ops
 .text.spi_flash_read_common
                0x1ff16060       0x5c drivers/mtd/spi/built-in.o
                0x1ff16060                spi_flash_read_common
 .text.spi_flash_cmd_read_status
                0x1ff160bc       0x2c drivers/mtd/spi/built-in.o
                0x1ff160bc                spi_flash_cmd_read_status
 .text.spi_flash_cmd_write_config
                0x1ff160e8       0x4c drivers/mtd/spi/built-in.o
                0x1ff160e8                spi_flash_cmd_write_config
 .text.spi_flash_cmd_read_config
                0x1ff16134       0x2c drivers/mtd/spi/built-in.o
                0x1ff16134                spi_flash_cmd_read_config
 .text.spi_flash_cmd_read_ops
                0x1ff16160      0x16c drivers/mtd/spi/built-in.o
                0x1ff16160                spi_flash_cmd_read_ops
 .text.spi_flash_set_qeb
                0x1ff162cc       0x6c drivers/mtd/spi/built-in.o
 .text.spi_flash_probe
                0x1ff16338      0x3f4 drivers/mtd/spi/built-in.o
                0x1ff16338                spi_flash_probe
 .text.spi_flash_free
                0x1ff1672c       0x1c drivers/mtd/spi/built-in.o
                0x1ff1672c                spi_flash_free
 .text.nc_wait_arp_handler
                0x1ff16748       0x14 drivers/net/built-in.o
 .text.nc_handler
                0x1ff1675c       0x24 drivers/net/built-in.o
 .text.nc_timeout
                0x1ff16780       0x14 drivers/net/built-in.o
 .text.is_broadcast
                0x1ff16794       0xa0 drivers/net/built-in.o
 .text.nc_getc  0x1ff16834       0x8c drivers/net/built-in.o
 .text.nc_send_packet
                0x1ff168c0      0x168 drivers/net/built-in.o
 .text.nc_putc  0x1ff16a28       0x38 drivers/net/built-in.o
 .text.refresh_settings_from_env
                0x1ff16a60      0x130 drivers/net/built-in.o
 .text.nc_start
                0x1ff16b90       0x38 drivers/net/built-in.o
 .text.nc_tstc  0x1ff16bc8       0x94 drivers/net/built-in.o
 .text.nc_puts  0x1ff16c5c       0x60 drivers/net/built-in.o
 .text.NcStart  0x1ff16cbc       0xdc drivers/net/built-in.o
                0x1ff16cbc                NcStart
 .text.nc_input_packet
                0x1ff16d98       0xe0 drivers/net/built-in.o
                0x1ff16d98                nc_input_packet
 .text.drv_nc_init
                0x1ff16e78       0x84 drivers/net/built-in.o
                0x1ff16e78                drv_nc_init
 .text.zynq_gem_setup_mac
                0x1ff16efc       0x70 drivers/net/built-in.o
 .text.zynq_gem_halt
                0x1ff16f6c       0x14 drivers/net/built-in.o
 .text.phy_setup_op
                0x1ff16f80       0x94 drivers/net/built-in.o
 .text.zynq_gem_miiphy_write
                0x1ff17014       0x2c drivers/net/built-in.o
 .text.zynq_gem_recv
                0x1ff17040       0xd8 drivers/net/built-in.o
 .text.zynq_gem_send
                0x1ff17118       0xac drivers/net/built-in.o
 .text.zynq_gem_miiphyread
                0x1ff171c4       0x24 drivers/net/built-in.o
 .text.zynq_gem_init
                0x1ff171e8      0x290 drivers/net/built-in.o
 .text.zynq_gem_initialize
                0x1ff17478      0x128 drivers/net/built-in.o
                0x1ff17478                zynq_gem_initialize
 .text.m88e1xxx_parse_status
                0x1ff175a0      0x10c drivers/net/phy/built-in.o
 .text.m88e1011s_startup
                0x1ff176ac       0x1c drivers/net/phy/built-in.o
 .text.m88e1118_startup
                0x1ff176c8       0x44 drivers/net/phy/built-in.o
 .text.m88e1145_startup
                0x1ff1770c       0x40 drivers/net/phy/built-in.o
 .text.m88e1011s_config
                0x1ff1774c       0xf8 drivers/net/phy/built-in.o
 .text.m88e1121_config
                0x1ff17844       0xcc drivers/net/phy/built-in.o
 .text.m88e1111s_config
                0x1ff17910      0x324 drivers/net/phy/built-in.o
 .text.m88e1118_config
                0x1ff17c34       0xc4 drivers/net/phy/built-in.o
 .text.m88e1145_config
                0x1ff17cf8      0x10c drivers/net/phy/built-in.o
 .text.m88e1149_config
                0x1ff17e04       0xc4 drivers/net/phy/built-in.o
 .text.m88e1310_config
                0x1ff17ec8      0x164 drivers/net/phy/built-in.o
 .text.phy_marvell_init
                0x1ff1802c       0x78 drivers/net/phy/built-in.o
                0x1ff1802c                phy_marvell_init
 .text.genphy_shutdown
                0x1ff180a4        0x8 drivers/net/phy/built-in.o
                0x1ff180a4                genphy_shutdown
 .text.generic_ffs
                0x1ff180ac       0x50 drivers/net/phy/built-in.o
 .text.phy_device_create
                0x1ff180fc       0xe4 drivers/net/phy/built-in.o
 .text.get_phy_device_by_mask
                0x1ff181e0      0x158 drivers/net/phy/built-in.o
 .text.genphy_restart_aneg
                0x1ff18338       0x5c drivers/net/phy/built-in.o
                0x1ff18338                genphy_restart_aneg
 .text.genphy_config_aneg
                0x1ff18394      0x1dc drivers/net/phy/built-in.o
                0x1ff18394                genphy_config_aneg
 .text.genphy_config
                0x1ff18570       0xb4 drivers/net/phy/built-in.o
                0x1ff18570                genphy_config
 .text.genphy_update_link
                0x1ff18624      0x140 drivers/net/phy/built-in.o
                0x1ff18624                genphy_update_link
 .text.genphy_parse_link
                0x1ff18764      0x190 drivers/net/phy/built-in.o
                0x1ff18764                genphy_parse_link
 .text.genphy_startup
                0x1ff188f4       0x1c drivers/net/phy/built-in.o
                0x1ff188f4                genphy_startup
 .text.phy_init
                0x1ff18910       0x10 drivers/net/phy/built-in.o
                0x1ff18910                phy_init
 .text.phy_register
                0x1ff18920       0x28 drivers/net/phy/built-in.o
                0x1ff18920                phy_register
 .text.phy_reset
                0x1ff18948       0xac drivers/net/phy/built-in.o
                0x1ff18948                phy_reset
 .text.phy_find_by_mask
                0x1ff189f4       0x3c drivers/net/phy/built-in.o
                0x1ff189f4                phy_find_by_mask
 .text.phy_connect_dev
                0x1ff18a30       0x44 drivers/net/phy/built-in.o
                0x1ff18a30                phy_connect_dev
 .text.phy_connect
                0x1ff18a74       0x50 drivers/net/phy/built-in.o
                0x1ff18a74                phy_connect
 .text.phy_startup
                0x1ff18ac4       0x24 drivers/net/phy/built-in.o
                0x1ff18ac4                phy_startup
 .text.__board_phy_config
                0x1ff18ae8       0x24 drivers/net/phy/built-in.o
                0x1ff18ae8                board_phy_config
 .text.phy_config
                0x1ff18b0c       0x10 drivers/net/phy/built-in.o
                0x1ff18b0c                phy_config
 .text.get_current
                0x1ff18b1c       0x40 drivers/serial/built-in.o
 .text.serial_null
                0x1ff18b5c        0x4 drivers/serial/built-in.o
                0x1ff18b5c                jz_serial_initialize
                0x1ff18b5c                bfin_serial_initialize
                0x1ff18b5c                p3mx_serial_initialize
                0x1ff18b5c                leon2_serial_initialize
                0x1ff18b5c                leon3_serial_initialize
                0x1ff18b5c                amirix_serial_initialize
                0x1ff18b5c                marvell_serial_initialize
                0x1ff18b5c                cpci750_serial_initialize
                0x1ff18b5c                ns16550_serial_initialize
                0x1ff18b5c                asc_serial_initialize
                0x1ff18b5c                altera_serial_initialize
                0x1ff18b5c                oc_serial_initialize
                0x1ff18b5c                sh_serial_initialize
                0x1ff18b5c                mxs_auart_initialize
                0x1ff18b5c                arm_dcc_initialize
                0x1ff18b5c                bmw_serial_initialize
                0x1ff18b5c                mcf_serial_initialize
                0x1ff18b5c                lh7a40x_serial_initialize
                0x1ff18b5c                evb64260_serial_initialize
                0x1ff18b5c                lpc32xx_serial_initialize
                0x1ff18b5c                max3100_serial_initialize
                0x1ff18b5c                mpc85xx_serial_initialize
                0x1ff18b5c                imx_serial_initialize
                0x1ff18b5c                ixp_serial_initialize
                0x1ff18b5c                bfin_jtag_initialize
                0x1ff18b5c                cogent_serial_initialize
                0x1ff18b5c                clps7111_serial_initialize
                0x1ff18b5c                ml2_serial_initialize
                0x1ff18b5c                sandbox_serial_initialize
                0x1ff18b5c                s3c24xx_serial_initialize
                0x1ff18b5c                sconsole_serial_initialize
                0x1ff18b5c                uartlite_serial_initialize
                0x1ff18b5c                au1x00_serial_initialize
                0x1ff18b5c                pxa_serial_initialize
                0x1ff18b5c                atmel_serial_initialize
                0x1ff18b5c                pl01x_serial_initialize
                0x1ff18b5c                altera_jtag_serial_initialize
                0x1ff18b5c                mpc512x_serial_initialize
                0x1ff18b5c                s5p_serial_initialize
                0x1ff18b5c                ks8695_serial_initialize
                0x1ff18b5c                sa1100_serial_initialize
                0x1ff18b5c                mpc8260_scc_serial_initialize
                0x1ff18b5c                mxc_serial_initialize
                0x1ff18b5c                iop480_serial_initialize
                0x1ff18b5c                mpc8xx_serial_initialize
                0x1ff18b5c                mpc8260_smc_serial_initialize
                0x1ff18b5c                mpc5xx_serial_initialize
 .text.serial_register
                0x1ff18b60       0x18 drivers/serial/built-in.o
                0x1ff18b60                serial_register
 .text.serial_stdio_init
                0x1ff18b78       0x8c drivers/serial/built-in.o
                0x1ff18b78                serial_stdio_init
 .text.serial_assign
                0x1ff18c04       0x4c drivers/serial/built-in.o
                0x1ff18c04                serial_assign
 .text.serial_initialize
                0x1ff18c50       0xd0 drivers/serial/built-in.o
                0x1ff18c50                serial_initialize
 .text.serial_init
                0x1ff18d20       0x14 drivers/serial/built-in.o
                0x1ff18d20                serial_init
 .text.serial_setbrg
                0x1ff18d34       0x14 drivers/serial/built-in.o
                0x1ff18d34                serial_setbrg
 .text.on_baudrate
                0x1ff18d48       0xe8 drivers/serial/built-in.o
 .text.serial_getc
                0x1ff18e30       0x14 drivers/serial/built-in.o
                0x1ff18e30                serial_getc
 .text.serial_tstc
                0x1ff18e44       0x14 drivers/serial/built-in.o
                0x1ff18e44                serial_tstc
 .text.serial_putc
                0x1ff18e58       0x1c drivers/serial/built-in.o
                0x1ff18e58                serial_putc
 .text.serial_puts
                0x1ff18e74       0x1c drivers/serial/built-in.o
                0x1ff18e74                serial_puts
 .text.uart_zynq_serial_putc
                0x1ff18e90       0x40 drivers/serial/built-in.o
 .text.uart_zynq0_putc
                0x1ff18ed0        0x8 drivers/serial/built-in.o
                0x1ff18ed0                uart_zynq0_putc
 .text.uart_zynq1_tstc
                0x1ff18ed8       0x18 drivers/serial/built-in.o
                0x1ff18ed8                uart_zynq1_tstc
 .text.uart_zynq1_putc
                0x1ff18ef0        0x8 drivers/serial/built-in.o
                0x1ff18ef0                uart_zynq1_putc
 .text.uart_zynq1_puts
                0x1ff18ef8       0x24 drivers/serial/built-in.o
                0x1ff18ef8                uart_zynq1_puts
 .text.uart_zynq_serial_setbrg
                0x1ff18f1c       0xa8 drivers/serial/built-in.o
 .text.uart_zynq1_init
                0x1ff18fc4       0x2c drivers/serial/built-in.o
                0x1ff18fc4                uart_zynq1_init
 .text.uart_zynq0_setbrg
                0x1ff18ff0        0x8 drivers/serial/built-in.o
                0x1ff18ff0                uart_zynq0_setbrg
 .text.uart_zynq1_setbrg
                0x1ff18ff8        0x8 drivers/serial/built-in.o
                0x1ff18ff8                uart_zynq1_setbrg
 .text.uart_zynq1_getc
                0x1ff19000       0x20 drivers/serial/built-in.o
                0x1ff19000                uart_zynq1_getc
 .text.uart_zynq0_tstc
                0x1ff19020       0x14 drivers/serial/built-in.o
                0x1ff19020                uart_zynq0_tstc
 .text.uart_zynq0_init
                0x1ff19034       0x28 drivers/serial/built-in.o
                0x1ff19034                uart_zynq0_init
 .text.uart_zynq0_getc
                0x1ff1905c       0x1c drivers/serial/built-in.o
                0x1ff1905c                uart_zynq0_getc
 .text.uart_zynq0_puts
                0x1ff19078       0x24 drivers/serial/built-in.o
                0x1ff19078                uart_zynq0_puts
 .text.default_serial_console
                0x1ff1909c        0xc drivers/serial/built-in.o
                0x1ff1909c                default_serial_console
 .text.zynq_serial_initalize
                0x1ff190a8       0x20 drivers/serial/built-in.o
                0x1ff190a8                zynq_serial_initalize
 .text.spi_do_alloc_slave
                0x1ff190c8       0x4c drivers/spi/built-in.o
                0x1ff190c8                spi_do_alloc_slave
 .text.zynq_qspi_setup_transfer
                0x1ff19114       0xa8 drivers/spi/built-in.o
 .text.zynq_qspi_copy_write_data
                0x1ff191bc       0xf4 drivers/spi/built-in.o
 .text.zynq_qspi_fill_tx_fifo
                0x1ff192b0       0xe4 drivers/spi/built-in.o
 .text.zynq_qspi_copy_read_data
                0x1ff19394       0xb8 drivers/spi/built-in.o
 .text.spi_init
                0x1ff1944c        0x4 drivers/spi/built-in.o
                0x1ff1944c                spi_init
 .text.spi_setup_slave
                0x1ff19450      0x1ec drivers/spi/built-in.o
                0x1ff19450                spi_setup_slave
 .text.spi_free_slave
                0x1ff1963c        0x4 drivers/spi/built-in.o
                0x1ff1963c                spi_free_slave
 .text.spi_claim_bus
                0x1ff19640        0x8 drivers/spi/built-in.o
                0x1ff19640                spi_claim_bus
 .text.spi_release_bus
                0x1ff19648        0x4 drivers/spi/built-in.o
                0x1ff19648                spi_release_bus
 .text.spi_xfer
                0x1ff1964c      0x434 drivers/spi/built-in.o
                0x1ff1964c                spi_xfer
 .text.ext4fs_set_blk_dev
                0x1ff19a80       0x6c fs/built-in.o
                0x1ff19a80                ext4fs_set_blk_dev
 .text.ext4fs_devread
                0x1ff19aec      0x250 fs/built-in.o
                0x1ff19aec                ext4fs_devread
 .text.ext4_read_superblock
                0x1ff19d3c       0x3c fs/built-in.o
                0x1ff19d3c                ext4_read_superblock
 .text.ext4fs_read_inode
                0x1ff19d78      0x134 fs/built-in.o
                0x1ff19d78                ext4fs_read_inode
 .text.read_allocated_block
                0x1ff19eac      0x95c fs/built-in.o
                0x1ff19eac                read_allocated_block
 .text.ext4fs_close
                0x1ff1a808      0x110 fs/built-in.o
                0x1ff1a808                ext4fs_close
 .text.ext4fs_iterate_dir
                0x1ff1a918      0x270 fs/built-in.o
                0x1ff1a918                ext4fs_iterate_dir
 .text.ext4fs_find_file1
                0x1ff1ab88      0x298 fs/built-in.o
 .text.ext4fs_find_file
                0x1ff1ae20       0x78 fs/built-in.o
                0x1ff1ae20                ext4fs_find_file
 .text.ext4fs_open
                0x1ff1ae98       0x9c fs/built-in.o
                0x1ff1ae98                ext4fs_open
 .text.ext4fs_mount
                0x1ff1af34       0xc4 fs/built-in.o
                0x1ff1af34                ext4fs_mount
 .text.get_fs   0x1ff1aff8        0xc fs/built-in.o
                0x1ff1aff8                get_fs
 .text.ext4fs_free_node
                0x1ff1b004       0x24 fs/built-in.o
                0x1ff1b004                ext4fs_free_node
 .text.ext4fs_read_file
                0x1ff1b028      0x27c fs/built-in.o
                0x1ff1b028                ext4fs_read_file
 .text.ext4fs_ls
                0x1ff1b2a4       0x78 fs/built-in.o
                0x1ff1b2a4                ext4fs_ls
 .text.ext4fs_read
                0x1ff1b31c       0x40 fs/built-in.o
                0x1ff1b31c                ext4fs_read
 .text.ext4fs_probe
                0x1ff1b35c       0x30 fs/built-in.o
                0x1ff1b35c                ext4fs_probe
 .text.ext4_read_file
                0x1ff1b38c       0x64 fs/built-in.o
                0x1ff1b38c                ext4_read_file
 .text.downcase
                0x1ff1b3f0       0x30 fs/built-in.o
 .text.disk_read
                0x1ff1b420       0x58 fs/built-in.o
 .text.dirdelim
                0x1ff1b478       0x30 fs/built-in.o
 .text.get_fatent
                0x1ff1b4a8      0x154 fs/built-in.o
 .text.mkcksum  0x1ff1b5fc       0x54 fs/built-in.o
 .text.check_overflow
                0x1ff1b650       0x74 fs/built-in.o
 .text.disk_write
                0x1ff1b6c4       0x80 fs/built-in.o
 .text.flush_fat_buffer
                0x1ff1b744       0x80 fs/built-in.o
 .text.get_fatent_value
                0x1ff1b7c4      0x17c fs/built-in.o
 .text.set_fatent_value
                0x1ff1b940      0x100 fs/built-in.o
 .text.get_cluster
                0x1ff1ba40      0x178 fs/built-in.o
 .text.get_name
                0x1ff1bbb8       0xac fs/built-in.o
 .text.set_cluster
                0x1ff1bc64       0xc8 fs/built-in.o
 .text.set_contents
                0x1ff1bd2c      0x1c8 fs/built-in.o
 .text.read_bootsectandvi
                0x1ff1bef4      0x124 fs/built-in.o
 .text.set_name
                0x1ff1c018      0x134 fs/built-in.o
 .text.slot2str
                0x1ff1c14c       0xc0 fs/built-in.o
 .text.get_vfatname
                0x1ff1c20c      0x1b0 fs/built-in.o
 .text.flush_dir_table.constprop.7
                0x1ff1c3bc       0xe0 fs/built-in.o
 .text.do_fat_write
                0x1ff1c49c      0x9fc fs/built-in.o
 .text.fat_set_blk_dev
                0x1ff1ce98       0xd0 fs/built-in.o
                0x1ff1ce98                fat_set_blk_dev
 .text.do_fat_read_at
                0x1ff1cf68      0xb20 fs/built-in.o
                0x1ff1cf68                do_fat_read_at
 .text.do_fat_read
                0x1ff1da88       0x28 fs/built-in.o
                0x1ff1da88                do_fat_read
 .text.file_fat_detectfs
                0x1ff1dab0      0x148 fs/built-in.o
                0x1ff1dab0                file_fat_detectfs
 .text.file_fat_ls
                0x1ff1dbf8       0x10 fs/built-in.o
                0x1ff1dbf8                file_fat_ls
 .text.file_fat_read_at
                0x1ff1dc08       0x48 fs/built-in.o
                0x1ff1dc08                file_fat_read_at
 .text.fat_read_file
                0x1ff1dc50       0x3c fs/built-in.o
                0x1ff1dc50                fat_read_file
 .text.fat_close
                0x1ff1dc8c        0x4 fs/built-in.o
                0x1ff1dc8c                fat_close
 .text.file_fat_write
                0x1ff1dc90       0x34 fs/built-in.o
                0x1ff1dc90                file_fat_write
 .text.fs_probe_unsupported
                0x1ff1dcc4       0x18 fs/built-in.o
 .text.fs_ls_unsupported
                0x1ff1dcdc        0x8 fs/built-in.o
 .text.fs_read_unsupported
                0x1ff1dce4        0x8 fs/built-in.o
 .text.fs_write_unsupported
                0x1ff1dcec        0x8 fs/built-in.o
 .text.fs_close_unsupported
                0x1ff1dcf4        0x4 fs/built-in.o
 .text.fs_get_info
                0x1ff1dcf8       0x30 fs/built-in.o
 .text.fs_close
                0x1ff1dd28       0x28 fs/built-in.o
 .text.fs_set_blk_dev
                0x1ff1dd50       0xa4 fs/built-in.o
                0x1ff1dd50                fs_set_blk_dev
 .text.fs_ls    0x1ff1ddf4       0x3c fs/built-in.o
                0x1ff1ddf4                fs_ls
 .text.fs_read  0x1ff1de30       0x78 fs/built-in.o
                0x1ff1de30                fs_read
 .text.do_load  0x1ff1dea8      0x1c8 fs/built-in.o
                0x1ff1dea8                do_load
 .text.do_ls    0x1ff1e070       0x68 fs/built-in.o
                0x1ff1e070                do_ls
 .text.cyg_crc16
                0x1ff1e0d8       0x44 lib/built-in.o
                0x1ff1e0d8                cyg_crc16
 .text.crc32_no_comp
                0x1ff1e11c       0xd8 lib/built-in.o
                0x1ff1e11c                crc32_no_comp
 .text.crc32    0x1ff1e1f4       0x14 lib/built-in.o
                0x1ff1e1f4                crc32
 .text.crc32_wd
                0x1ff1e208        0x4 lib/built-in.o
                0x1ff1e208                crc32_wd
 .text.print_size
                0x1ff1e20c      0x134 lib/built-in.o
                0x1ff1e20c                print_size
 .text.print_buffer
                0x1ff1e340      0x1c0 lib/built-in.o
                0x1ff1e340                print_buffer
 .text.__div64_32
                0x1ff1e500       0xd4 lib/built-in.o
                0x1ff1e500                __div64_32
 .text.gzalloc  0x1ff1e5d4       0x10 lib/built-in.o
                0x1ff1e5d4                gzalloc
 .text.gzfree   0x1ff1e5e4        0x8 lib/built-in.o
                0x1ff1e5e4                gzfree
 .text.zunzip   0x1ff1e5ec      0x118 lib/built-in.o
                0x1ff1e5ec                zunzip
 .text.gunzip   0x1ff1e704       0xc8 lib/built-in.o
                0x1ff1e704                gunzip
 .text.hang     0x1ff1e7cc       0x1c lib/built-in.o
                0x1ff1e7cc                hang
 .text.cmpkey   0x1ff1e7e8       0x14 lib/built-in.o
 .text._hdelete.isra.1
                0x1ff1e7fc       0x50 lib/built-in.o
 .text.drop_var_from_set.part.2
                0x1ff1e84c       0x50 lib/built-in.o
 .text.match_string.isra.3
                0x1ff1e89c       0x60 lib/built-in.o
 .text.hcreate_r
                0x1ff1e8fc       0xac lib/built-in.o
                0x1ff1e8fc                hcreate_r
 .text.hdestroy_r
                0x1ff1e9a8       0x74 lib/built-in.o
                0x1ff1e9a8                hdestroy_r
 .text.hsearch_r
                0x1ff1ea1c      0x49c lib/built-in.o
                0x1ff1ea1c                hsearch_r
 .text.hdelete_r
                0x1ff1eeb8       0xd4 lib/built-in.o
                0x1ff1eeb8                hdelete_r
 .text.hexport_r
                0x1ff1ef8c      0x328 lib/built-in.o
                0x1ff1ef8c                hexport_r
 .text.himport_r
                0x1ff1f2b4      0x358 lib/built-in.o
                0x1ff1f2b4                himport_r
 .text.hwalk_r  0x1ff1f60c       0x58 lib/built-in.o
                0x1ff1f60c                hwalk_r
 .text.skip_spaces
                0x1ff1f664       0x28 lib/built-in.o
                0x1ff1f664                skip_spaces
 .text.strim    0x1ff1f68c       0x60 lib/built-in.o
                0x1ff1f68c                strim
 .text.lmb_add_region
                0x1ff1f6ec      0x1c0 lib/built-in.o
 .text.lmb_init
                0x1ff1f8ac       0x28 lib/built-in.o
                0x1ff1f8ac                lmb_init
 .text.lmb_add  0x1ff1f8d4        0x4 lib/built-in.o
                0x1ff1f8d4                lmb_add
 .text.lmb_free
                0x1ff1f8d8      0x10c lib/built-in.o
                0x1ff1f8d8                lmb_free
 .text.lmb_reserve
                0x1ff1f9e4        0x8 lib/built-in.o
                0x1ff1f9e4                lmb_reserve
 .text.lmb_overlaps_region
                0x1ff1f9ec       0x58 lib/built-in.o
                0x1ff1f9ec                lmb_overlaps_region
 .text.__lmb_alloc_base
                0x1ff1fa44      0x10c lib/built-in.o
                0x1ff1fa44                __lmb_alloc_base
 .text.lmb_alloc_base
                0x1ff1fb50       0x34 lib/built-in.o
                0x1ff1fb50                lmb_alloc_base
 .text.lmb_alloc
                0x1ff1fb84        0x8 lib/built-in.o
                0x1ff1fb84                lmb_alloc
 .text.__board_lmb_reserve
                0x1ff1fb8c        0x4 lib/built-in.o
                0x1ff1fb8c                board_lmb_reserve
                0x1ff1fb8c                __board_lmb_reserve
 .text.byteReverse
                0x1ff1fb90       0x2c lib/built-in.o
 .text.MD5Transform
                0x1ff1fbbc      0xa08 lib/built-in.o
 .text.MD5Update
                0x1ff205c4       0xe4 lib/built-in.o
 .text.MD5Final
                0x1ff206a8       0xc4 lib/built-in.o
 .text.md5_wd   0x1ff2076c       0x68 lib/built-in.o
                0x1ff2076c                md5_wd
 .text.string_to_ip
                0x1ff207d4       0x64 lib/built-in.o
                0x1ff207d4                string_to_ip
 .text.qsort    0x1ff20838       0xe4 lib/built-in.o
                0x1ff20838                qsort
 .text.sha1_process
                0x1ff2091c     0x1530 lib/built-in.o
 .text.sha1_update.part.0
                0x1ff21e4c       0xbc lib/built-in.o
 .text.sha1_starts
                0x1ff21f08       0x4c lib/built-in.o
                0x1ff21f08                sha1_starts
 .text.sha1_update
                0x1ff21f54        0xc lib/built-in.o
                0x1ff21f54                sha1_update
 .text.sha1_finish
                0x1ff21f60      0x144 lib/built-in.o
                0x1ff21f60                sha1_finish
 .text.sha1_csum_wd
                0x1ff220a4       0x40 lib/built-in.o
                0x1ff220a4                sha1_csum_wd
 .text.strcpy   0x1ff220e4       0x1c lib/built-in.o
                0x1ff220e4                strcpy
 .text.strncpy  0x1ff22100       0x24 lib/built-in.o
                0x1ff22100                strncpy
 .text.strcat   0x1ff22124       0x30 lib/built-in.o
                0x1ff22124                strcat
 .text.strncat  0x1ff22154       0x54 lib/built-in.o
                0x1ff22154                strncat
 .text.strcmp   0x1ff221a8       0x2c lib/built-in.o
                0x1ff221a8                strcmp
 .text.strncmp  0x1ff221d4       0x40 lib/built-in.o
                0x1ff221d4                strncmp
 .text.strchr   0x1ff22214       0x2c lib/built-in.o
                0x1ff22214                strchr
 .text.strlen   0x1ff22240       0x20 lib/built-in.o
                0x1ff22240                strlen
 .text.strnlen  0x1ff22260       0x30 lib/built-in.o
                0x1ff22260                strnlen
 .text.strdup   0x1ff22290       0x3c lib/built-in.o
                0x1ff22290                strdup
 .text.strpbrk  0x1ff222cc       0x3c lib/built-in.o
                0x1ff222cc                strpbrk
 .text.memset   0x1ff22308       0x60 lib/built-in.o
                0x1ff22308                memset
 .text.memcpy   0x1ff22368       0x60 lib/built-in.o
                0x1ff22368                memcpy
 .text.memmove  0x1ff223c8       0x54 lib/built-in.o
                0x1ff223c8                memmove
 .text.memcmp   0x1ff2241c       0x34 lib/built-in.o
                0x1ff2241c                memcmp
 .text.strstr   0x1ff22450       0x68 lib/built-in.o
                0x1ff22450                strstr
 .text.memchr   0x1ff224b8       0x30 lib/built-in.o
                0x1ff224b8                memchr
 .text.udelay   0x1ff224e8       0x30 lib/built-in.o
                0x1ff224e8                udelay
 .text.put_dec_trunc
                0x1ff22518       0xe0 lib/built-in.o
 .text.put_dec  0x1ff225f8      0x134 lib/built-in.o
 .text.string.isra.0
                0x1ff2272c       0x90 lib/built-in.o
 .text.number.isra.4
                0x1ff227bc      0x25c lib/built-in.o
 .text.vsnprintf_internal.isra.6
                0x1ff22a18      0x5fc lib/built-in.o
 .text.simple_strtoul
                0x1ff23014       0xb8 lib/built-in.o
                0x1ff23014                simple_strtoul
 .text.strict_strtoul
                0x1ff230cc       0x7c lib/built-in.o
                0x1ff230cc                strict_strtoul
 .text.simple_strtol
                0x1ff23148       0x28 lib/built-in.o
                0x1ff23148                simple_strtol
 .text.simple_strtoull
                0x1ff23170       0xdc lib/built-in.o
                0x1ff23170                simple_strtoull
 .text.vsprintf
                0x1ff2324c        0x4 lib/built-in.o
                0x1ff2324c                vsprintf
 .text.sprintf  0x1ff23250       0x28 lib/built-in.o
                0x1ff23250                sprintf
 .text.panic    0x1ff23278       0x44 lib/built-in.o
                0x1ff23278                panic
 .text.simple_itoa
                0x1ff232bc       0x54 lib/built-in.o
                0x1ff232bc                simple_itoa
 .text.zcalloc  0x1ff23310        0x8 lib/built-in.o
                0x1ff23310                zcalloc
 .text.zcfree   0x1ff23318        0x8 lib/built-in.o
                0x1ff23318                zcfree
 .text.inflate_fast
                0x1ff23320      0x5a8 lib/built-in.o
                0x1ff23320                inflate_fast
 .text.inflate_table
                0x1ff238c8      0x564 lib/built-in.o
                0x1ff238c8                inflate_table
 .text.inflateReset
                0x1ff23e2c       0x7c lib/built-in.o
                0x1ff23e2c                inflateReset
 .text.inflateInit2_
                0x1ff23ea8      0x104 lib/built-in.o
                0x1ff23ea8                inflateInit2_
 .text.inflateEnd
                0x1ff23fac       0x64 lib/built-in.o
                0x1ff23fac                inflateEnd
 .text.adler32  0x1ff24010      0x344 lib/built-in.o
                0x1ff24010                adler32
 .text.inflate  0x1ff24354     0x14f8 lib/built-in.o
                0x1ff24354                inflate
 .text.fdt_check_header
                0x1ff2584c       0x78 lib/libfdt/built-in.o
                0x1ff2584c                fdt_check_header
 .text.fdt_offset_ptr
                0x1ff258c4       0x4c lib/libfdt/built-in.o
                0x1ff258c4                fdt_offset_ptr
 .text.fdt_next_tag
                0x1ff25910       0xf8 lib/libfdt/built-in.o
                0x1ff25910                fdt_next_tag
 .text._fdt_check_node_offset
                0x1ff25a08       0x3c lib/libfdt/built-in.o
                0x1ff25a08                _fdt_check_node_offset
 .text._fdt_check_prop_offset
                0x1ff25a44       0x3c lib/libfdt/built-in.o
                0x1ff25a44                _fdt_check_prop_offset
 .text.fdt_next_node
                0x1ff25a80       0xc0 lib/libfdt/built-in.o
                0x1ff25a80                fdt_next_node
 .text.fdt_first_subnode
                0x1ff25b40       0x38 lib/libfdt/built-in.o
                0x1ff25b40                fdt_first_subnode
 .text.fdt_next_subnode
                0x1ff25b78       0x50 lib/libfdt/built-in.o
                0x1ff25b78                fdt_next_subnode
 .text._fdt_find_string
                0x1ff25bc8       0x5c lib/libfdt/built-in.o
                0x1ff25bc8                _fdt_find_string
 .text.fdt_move
                0x1ff25c24       0x44 lib/libfdt/built-in.o
                0x1ff25c24                fdt_move
 .text._nextprop
                0x1ff25c68       0x5c lib/libfdt/built-in.o
 .text.fdt_string
                0x1ff25cc4       0x14 lib/libfdt/built-in.o
                0x1ff25cc4                fdt_string
 .text.fdt_get_mem_rsv
                0x1ff25cd8       0x70 lib/libfdt/built-in.o
                0x1ff25cd8                fdt_get_mem_rsv
 .text.fdt_num_mem_rsv
                0x1ff25d48       0x38 lib/libfdt/built-in.o
                0x1ff25d48                fdt_num_mem_rsv
 .text.fdt_subnode_offset_namelen
                0x1ff25d80       0xd4 lib/libfdt/built-in.o
                0x1ff25d80                fdt_subnode_offset_namelen
 .text.fdt_subnode_offset
                0x1ff25e54       0x30 lib/libfdt/built-in.o
                0x1ff25e54                fdt_subnode_offset
 .text.fdt_get_name
                0x1ff25e84       0x74 lib/libfdt/built-in.o
                0x1ff25e84                fdt_get_name
 .text.fdt_first_property_offset
                0x1ff25ef8       0x20 lib/libfdt/built-in.o
                0x1ff25ef8                fdt_first_property_offset
 .text.fdt_next_property_offset
                0x1ff25f18       0x20 lib/libfdt/built-in.o
                0x1ff25f18                fdt_next_property_offset
 .text.fdt_get_property_by_offset
                0x1ff25f38       0x54 lib/libfdt/built-in.o
                0x1ff25f38                fdt_get_property_by_offset
 .text.fdt_get_property_namelen
                0x1ff25f8c       0xa0 lib/libfdt/built-in.o
                0x1ff25f8c                fdt_get_property_namelen
 .text.fdt_get_property
                0x1ff2602c       0x3c lib/libfdt/built-in.o
                0x1ff2602c                fdt_get_property
 .text.fdt_getprop_namelen
                0x1ff26068       0x20 lib/libfdt/built-in.o
                0x1ff26068                fdt_getprop_namelen
 .text.fdt_getprop
                0x1ff26088       0x3c lib/libfdt/built-in.o
                0x1ff26088                fdt_getprop
 .text.fdt_get_alias_namelen
                0x1ff260c4       0x4c lib/libfdt/built-in.o
                0x1ff260c4                fdt_get_alias_namelen
 .text.fdt_path_offset
                0x1ff26110       0xec lib/libfdt/built-in.o
                0x1ff26110                fdt_path_offset
 .text.fdt_supernode_atdepth_offset
                0x1ff261fc       0xb8 lib/libfdt/built-in.o
                0x1ff261fc                fdt_supernode_atdepth_offset
 .text.fdt_node_depth
                0x1ff262b4       0x28 lib/libfdt/built-in.o
                0x1ff262b4                fdt_node_depth
 .text._fdt_blocks_misordered
                0x1ff262dc       0x64 lib/libfdt/built-in.o
 .text._fdt_splice
                0x1ff26340       0x78 lib/libfdt/built-in.o
 .text._fdt_splice_mem_rsv
                0x1ff263b8       0x58 lib/libfdt/built-in.o
 .text._fdt_splice_struct
                0x1ff26410       0x4c lib/libfdt/built-in.o
 .text._fdt_packblocks
                0x1ff2645c       0xa8 lib/libfdt/built-in.o
 .text._fdt_add_property
                0x1ff26504      0x13c lib/libfdt/built-in.o
 .text._fdt_rw_check_header
                0x1ff26640       0x60 lib/libfdt/built-in.o
 .text.fdt_add_mem_rsv
                0x1ff266a0       0x94 lib/libfdt/built-in.o
                0x1ff266a0                fdt_add_mem_rsv
 .text.fdt_del_mem_rsv
                0x1ff26734       0x5c lib/libfdt/built-in.o
                0x1ff26734                fdt_del_mem_rsv
 .text.fdt_setprop
                0x1ff26790       0xcc lib/libfdt/built-in.o
                0x1ff26790                fdt_setprop
 .text.fdt_delprop
                0x1ff2685c       0x60 lib/libfdt/built-in.o
                0x1ff2685c                fdt_delprop
 .text.fdt_add_subnode_namelen
                0x1ff268bc       0xf4 lib/libfdt/built-in.o
                0x1ff268bc                fdt_add_subnode_namelen
 .text.fdt_add_subnode
                0x1ff269b0       0x30 lib/libfdt/built-in.o
                0x1ff269b0                fdt_add_subnode
 .text.fdt_del_node
                0x1ff269e0       0x60 lib/libfdt/built-in.o
                0x1ff269e0                fdt_del_node
 .text.fdt_open_into
                0x1ff26a40      0x1a0 lib/libfdt/built-in.o
                0x1ff26a40                fdt_open_into
 .text.fdt_strerror
                0x1ff26be0       0x58 lib/libfdt/built-in.o
                0x1ff26be0                fdt_strerror
 .text._fdt_node_end_offset
                0x1ff26c38       0x44 lib/libfdt/built-in.o
                0x1ff26c38                _fdt_node_end_offset
 .text.ArpInit  0x1ff26c7c       0x50 net/built-in.o
                0x1ff26c7c                ArpInit
 .text.arp_raw_request
                0x1ff26ccc       0xc4 net/built-in.o
                0x1ff26ccc                arp_raw_request
 .text.ArpRequest
                0x1ff26d90       0x80 net/built-in.o
                0x1ff26d90                ArpRequest
 .text.ArpTimeoutCheck
                0x1ff26e10       0x80 net/built-in.o
                0x1ff26e10                ArpTimeoutCheck
 .text.ArpReceive
                0x1ff26e90      0x210 net/built-in.o
                0x1ff26e90                ArpReceive
 .text.DhcpOptionsProcess
                0x1ff270a0      0x210 net/built-in.o
 .text.DhcpHandler
                0x1ff272b0      0x430 net/built-in.o
 .text.BootpRequest
                0x1ff276e0      0x270 net/built-in.o
                0x1ff276e0                BootpRequest
 .text.BootpTimeout
                0x1ff27950       0x50 net/built-in.o
 .text.DhcpRequest
                0x1ff279a0        0x4 net/built-in.o
                0x1ff279a0                DhcpRequest
 .text.__def_eth_init
                0x1ff279a4        0x8 net/built-in.o
                0x1ff279a4                cpu_eth_init
 .text.eth_current_changed
                0x1ff279ac       0x60 net/built-in.o
 .text.eth_parse_enetaddr
                0x1ff27a0c       0x58 net/built-in.o
                0x1ff27a0c                eth_parse_enetaddr
 .text.eth_getenv_enetaddr
                0x1ff27a64       0x5c net/built-in.o
                0x1ff27a64                eth_getenv_enetaddr
 .text.eth_setenv_enetaddr
                0x1ff27ac0       0x34 net/built-in.o
                0x1ff27ac0                eth_setenv_enetaddr
 .text.eth_getenv_enetaddr_by_index
                0x1ff27af4       0x50 net/built-in.o
                0x1ff27af4                eth_getenv_enetaddr_by_index
 .text.eth_get_dev_by_index
                0x1ff27b44       0x48 net/built-in.o
                0x1ff27b44                eth_get_dev_by_index
 .text.eth_get_dev_index
                0x1ff27b8c       0x1c net/built-in.o
                0x1ff27b8c                eth_get_dev_index
 .text.eth_write_hwaddr
                0x1ff27ba8      0x1d8 net/built-in.o
                0x1ff27ba8                eth_write_hwaddr
 .text.eth_register
                0x1ff27d80       0x7c net/built-in.o
                0x1ff27d80                eth_register
 .text.eth_unregister
                0x1ff27dfc       0x9c net/built-in.o
                0x1ff27dfc                eth_unregister
 .text.eth_initialize
                0x1ff27e98      0x1d0 net/built-in.o
                0x1ff27e98                eth_initialize
 .text.eth_halt
                0x1ff28068       0x30 net/built-in.o
                0x1ff28068                eth_halt
 .text.eth_send
                0x1ff28098       0x38 net/built-in.o
                0x1ff28098                eth_send
 .text.eth_rx   0x1ff280d0       0x2c net/built-in.o
                0x1ff280d0                eth_rx
 .text.eth_try_another
                0x1ff280fc       0x84 net/built-in.o
                0x1ff280fc                eth_try_another
 .text.eth_init
                0x1ff28180       0xd0 net/built-in.o
                0x1ff28180                eth_init
 .text.eth_set_current
                0x1ff28250       0xa4 net/built-in.o
                0x1ff28250                eth_set_current
 .text.eth_get_name
                0x1ff282f4       0x20 net/built-in.o
                0x1ff282f4                eth_get_name
 .text.startAgainTimeout
                0x1ff28314       0x14 net/built-in.o
 .text.dummy_handler
                0x1ff28328        0x4 net/built-in.o
 .text.net_clear_handlers
                0x1ff2832c       0x34 net/built-in.o
 .text.net_auto_load
                0x1ff28360       0x64 net/built-in.o
                0x1ff28360                net_auto_load
 .text.NetStartAgain
                0x1ff283c4      0x150 net/built-in.o
                0x1ff283c4                NetStartAgain
 .text.net_set_udp_handler
                0x1ff28514       0x20 net/built-in.o
                0x1ff28514                net_set_udp_handler
 .text.net_get_arp_handler
                0x1ff28534       0x10 net/built-in.o
                0x1ff28534                net_get_arp_handler
 .text.net_set_arp_handler
                0x1ff28544       0x20 net/built-in.o
                0x1ff28544                net_set_arp_handler
 .text.NetSetTimeout
                0x1ff28564       0x4c net/built-in.o
                0x1ff28564                NetSetTimeout
 .text.NetCksum
                0x1ff285b0       0x30 net/built-in.o
                0x1ff285b0                NetCksum
 .text.NetCksumOk
                0x1ff285e0       0x20 net/built-in.o
                0x1ff285e0                NetCksumOk
 .text.NetReceive
                0x1ff28600      0x2bc net/built-in.o
                0x1ff28600                NetReceive
 .text.NetEthHdrSize
                0x1ff288bc       0x38 net/built-in.o
                0x1ff288bc                NetEthHdrSize
 .text.NetSetEther
                0x1ff288f4       0x98 net/built-in.o
                0x1ff288f4                NetSetEther
 .text.net_update_ether
                0x1ff2898c       0x78 net/built-in.o
                0x1ff2898c                net_update_ether
 .text.net_set_ip_header
                0x1ff28a04       0x8c net/built-in.o
                0x1ff28a04                net_set_ip_header
 .text.net_set_udp_header
                0x1ff28a90       0x88 net/built-in.o
                0x1ff28a90                net_set_udp_header
 .text.NetSendUDPPacket
                0x1ff28b18      0x114 net/built-in.o
                0x1ff28b18                NetSendUDPPacket
 .text.copy_filename
                0x1ff28c2c       0x48 net/built-in.o
                0x1ff28c2c                copy_filename
 .text.on_bootfile
                0x1ff28c74       0x2c net/built-in.o
 .text.ip_to_string
                0x1ff28ca0       0x38 net/built-in.o
                0x1ff28ca0                ip_to_string
 .text.string_to_VLAN
                0x1ff28cd8       0x48 net/built-in.o
                0x1ff28cd8                string_to_VLAN
 .text.getenv_VLAN
                0x1ff28d20       0x10 net/built-in.o
                0x1ff28d20                getenv_VLAN
 .text.NetInitLoop
                0x1ff28d30       0xf0 net/built-in.o
 .text.net_init
                0x1ff28e20       0x70 net/built-in.o
                0x1ff28e20                net_init
 .text.NetLoop  0x1ff28e90      0x398 net/built-in.o
                0x1ff28e90                NetLoop
 .text.rpc_lookup_reply
                0x1ff29228       0xb4 net/built-in.o
 .text.nfs_mount_reply
                0x1ff292dc       0xac net/built-in.o
 .text.nfs_umountall_reply
                0x1ff29388       0x9c net/built-in.o
 .text.nfs_lookup_reply
                0x1ff29424       0x9c net/built-in.o
 .text.nfs_readlink_reply
                0x1ff294c0       0xfc net/built-in.o
 .text.basename
                0x1ff295bc       0x3c net/built-in.o
 .text.rpc_add_credentials
                0x1ff295f8       0xb4 net/built-in.o
 .text.rpc_req  0x1ff296ac       0xf8 net/built-in.o
 .text.nfs_mount_req
                0x1ff297a4       0x94 net/built-in.o
 .text.nfs_umountall_req
                0x1ff29838       0x60 net/built-in.o
 .text.nfs_lookup_req
                0x1ff29898       0xa8 net/built-in.o
 .text.nfs_read_req
                0x1ff29940       0x78 net/built-in.o
 .text.nfs_readlink_req
                0x1ff299b8       0x58 net/built-in.o
 .text.nfs_read_reply.isra.0
                0x1ff29a10      0x140 net/built-in.o
 .text.NfsSend  0x1ff29b50      0x114 net/built-in.o
 .text.NfsHandler
                0x1ff29c64      0x238 net/built-in.o
 .text.NfsTimeout
                0x1ff29e9c       0x64 net/built-in.o
 .text.NfsStart
                0x1ff29f00      0x258 net/built-in.o
                0x1ff29f00                NfsStart
 .text.ping_timeout
                0x1ff2a158       0x1c net/built-in.o
 .text.ping_start
                0x1ff2a174      0x124 net/built-in.o
                0x1ff2a174                ping_start
 .text.ping_receive
                0x1ff2a298       0xe8 net/built-in.o
                0x1ff2a298                ping_receive
 .text.TftpSend
                0x1ff2a380      0x1c4 net/built-in.o
 .text.TftpHandler
                0x1ff2a544      0x378 net/built-in.o
 .text.TftpTimeout
                0x1ff2a8bc       0x88 net/built-in.o
 .text.TftpStart
                0x1ff2a944      0x33c net/built-in.o
                0x1ff2a944                TftpStart
 .text.raise    0x1ff2ac80       0x1c /home/kartha/Avnet-Digilent-ZedBoard-2014.2/build/linux/u-boot/u-boot-plnx/arch/arm/lib/eabi_compat.o
                0x1ff2ac80                raise
 .text          0x1ff2ac9c      0x20c /opt/PetaLinux/petalinux-v2014.2-final/tools/linux-i386/arm-xilinx-linux-gnueabi/bin/../lib/gcc/arm-xilinx-linux-gnueabi/4.8.1/libgcc.a(_udivsi3.o)
                0x1ff2ac9c                __udivsi3
                0x1ff2ac9c                __aeabi_uidiv
                0x1ff2ae88                __aeabi_uidivmod
 .text          0x1ff2aea8      0x240 /opt/PetaLinux/petalinux-v2014.2-final/tools/linux-i386/arm-xilinx-linux-gnueabi/bin/../lib/gcc/arm-xilinx-linux-gnueabi/4.8.1/libgcc.a(_divsi3.o)
                0x1ff2aea8                __aeabi_idiv
                0x1ff2aea8                __divsi3
                0x1ff2b0c8                __aeabi_idivmod
 .text          0x1ff2b0e8       0x1c /opt/PetaLinux/petalinux-v2014.2-final/tools/linux-i386/arm-xilinx-linux-gnueabi/bin/../lib/gcc/arm-xilinx-linux-gnueabi/4.8.1/libgcc.a(_lshrdi3.o)
                0x1ff2b0e8                __aeabi_llsr
                0x1ff2b0e8                __lshrdi3
 .text          0x1ff2b104       0x1c /opt/PetaLinux/petalinux-v2014.2-final/tools/linux-i386/arm-xilinx-linux-gnueabi/bin/../lib/gcc/arm-xilinx-linux-gnueabi/4.8.1/libgcc.a(_ashldi3.o)
                0x1ff2b104                __ashldi3
                0x1ff2b104                __aeabi_llsl
 .text          0x1ff2b120       0x10 /opt/PetaLinux/petalinux-v2014.2-final/tools/linux-i386/arm-xilinx-linux-gnueabi/bin/../lib/gcc/arm-xilinx-linux-gnueabi/4.8.1/libgcc.a(_dvmd_lnx.o)
                0x1ff2b120                __aeabi_ldiv0
                0x1ff2b120                __aeabi_idiv0

.glue_7         0x1ff2b130        0x0
 .glue_7        0x00000000        0x0 linker stubs

.glue_7t        0x1ff2b130        0x0
 .glue_7t       0x00000000        0x0 linker stubs

.vfp11_veneer   0x1ff2b130        0x0
 .vfp11_veneer  0x00000000        0x0 linker stubs

.v4_bx          0x1ff2b130        0x0
 .v4_bx         0x00000000        0x0 linker stubs

.iplt           0x1ff2b130        0x0
 .iplt          0x00000000        0x0 arch/arm/cpu/armv7/start.o
                0x1ff2b130                . = ALIGN (0x4)

.rodata         0x1ff2b130     0xa5c4
 *(SORT(.rodata*))
 .rodata        0x1ff2b130       0x80 arch/arm/lib/built-in.o
 .rodata.CSWTCH.28
                0x1ff2b1b0       0x20 common/built-in.o
 .rodata.CSWTCH.35
                0x1ff2b1d0        0xc arch/arm/cpu/armv7/zynq/built-in.o
 .rodata.baudrate_table
                0x1ff2b1dc       0x18 drivers/serial/built-in.o
 .rodata.block_drvr
                0x1ff2b1f4       0x10 disk/built-in.o
 .rodata.boot_os
                0x1ff2b204       0x60 common/built-in.o
 .rodata.crc_table
                0x1ff2b264      0x400 lib/built-in.o
 .rodata.env_flags_varaccess_mask
                0x1ff2b664       0x10 common/built-in.o
 .rodata.ext_csd_bits.7280
                0x1ff2b674        0xc drivers/mmc/built-in.o
 .rodata.ext_to_hostcaps.7281
                0x1ff2b680        0xc drivers/mmc/built-in.o
 .rodata.fbase  0x1ff2b68c       0x10 drivers/mmc/built-in.o
 .rodata.fdt_errtable
                0x1ff2b69c       0x34 lib/libfdt/built-in.o
 .rodata.mio_periphs
                0x1ff2b6d0       0x8c arch/arm/cpu/armv7/zynq/built-in.o
 .rodata.multipliers
                0x1ff2b75c       0x40 drivers/mmc/built-in.o
 .rodata.nand16_pins
                0x1ff2b79c       0x20 arch/arm/cpu/armv7/zynq/built-in.o
 .rodata.nand8_pins
                0x1ff2b7bc       0x34 arch/arm/cpu/armv7/zynq/built-in.o
 .rodata.offsets.8942
                0x1ff2b7f0       0x10 drivers/spi/built-in.o
 .rodata.op_table
                0x1ff2b800       0x68 common/built-in.o
 .rodata.qspi0_pins
                0x1ff2b868       0x18 arch/arm/cpu/armv7/zynq/built-in.o
 .rodata.qspi1_cs_pin
                0x1ff2b880        0x4 arch/arm/cpu/armv7/zynq/built-in.o
 .rodata.qspi1_pins
                0x1ff2b884       0x14 arch/arm/cpu/armv7/zynq/built-in.o
 .rodata.spi_flash_params_table
                0x1ff2b898      0x4e0 drivers/mtd/spi/built-in.o
                0x1ff2b898                spi_flash_params_table
 .rodata.uart_zynq_ports
                0x1ff2bd78        0x8 drivers/serial/built-in.o
 .rodata.uart_zynq_ports_param
                0x1ff2bd80        0x8 drivers/serial/built-in.o
 .rodata.uimage_arch
                0x1ff2bd88      0x114 common/built-in.o
 .rodata.uimage_comp
                0x1ff2be9c       0x48 common/built-in.o
 .rodata.uimage_os
                0x1ff2bee4       0x6c common/built-in.o
 .rodata.uimage_type
                0x1ff2bf50       0xd8 common/built-in.o
 .rodata.usb0_pins
                0x1ff2c028       0x30 arch/arm/cpu/armv7/zynq/built-in.o
 .rodata.usb1_pins
                0x1ff2c058       0x30 arch/arm/cpu/armv7/zynq/built-in.o
 .rodata.widths.7282
                0x1ff2c088        0xc drivers/mmc/built-in.o
 .rodata.crc16_tab
                0x1ff2c094      0x200 lib/built-in.o
 .rodata.dbase.7112
                0x1ff2c294       0x40 lib/built-in.o
 .rodata.dext.7113
                0x1ff2c2d4       0x40 lib/built-in.o
 .rodata.distfix
                0x1ff2c314       0x80 lib/built-in.o
 .rodata.lbase.7110
                0x1ff2c394       0x3e lib/built-in.o
 .rodata.lenfix
                0x1ff2c3d2      0x800 lib/built-in.o
 .rodata.lext.7111
                0x1ff2cbd2       0x3e lib/built-in.o
 .rodata.order.7206
                0x1ff2cc10       0x26 lib/built-in.o
 .rodata        0x1ff2cc36        0x3 common/built-in.o
 .rodata        0x1ff2cc39        0xe net/built-in.o
 .rodata.CSWTCH.23
                0x1ff2cc47       0x16 common/built-in.o
 .rodata.CSWTCH.28
                0x1ff2cc5d        0x4 arch/arm/cpu/armv7/zynq/built-in.o
 .rodata.__FUNCTION__.7119
                0x1ff2cc61       0x17 common/built-in.o
 .rodata.__FUNCTION__.7393
                0x1ff2cc78       0x10 common/built-in.o
 .rodata.__func__.6817
                0x1ff2cc88       0x16 arch/arm/cpu/armv7/built-in.o
 .rodata.__func__.6942
                0x1ff2cc9e       0x10 common/built-in.o
 .rodata.__func__.6953
                0x1ff2ccae        0xb common/built-in.o
 .rodata.__func__.6992
                0x1ff2ccb9        0xf fs/built-in.o
 .rodata.__func__.7013
                0x1ff2ccc8        0xe drivers/built-in.o
 .rodata.__func__.7031
                0x1ff2ccd6        0x9 drivers/built-in.o
 .rodata.__func__.7046
                0x1ff2ccdf        0xa drivers/built-in.o
 .rodata.__func__.7059
                0x1ff2cce9        0xa drivers/built-in.o
 .rodata.__func__.7066
                0x1ff2ccf3        0x8 common/built-in.o
 .rodata.__func__.7072
                0x1ff2ccfb        0xa drivers/built-in.o
 .rodata.__func__.7138
                0x1ff2cd05        0xe common/built-in.o
 .rodata.__func__.7172
                0x1ff2cd13        0xe common/built-in.o
 .rodata.__func__.7188
                0x1ff2cd21        0xc drivers/mmc/built-in.o
 .rodata.__func__.7219
                0x1ff2cd2d       0x14 drivers/mmc/built-in.o
 .rodata.__func__.7241
                0x1ff2cd41       0x13 drivers/mmc/built-in.o
 .rodata.__func__.7242
                0x1ff2cd54       0x11 drivers/net/phy/built-in.o
 .rodata.__func__.7261
                0x1ff2cd65       0x10 drivers/mmc/built-in.o
 .rodata.__func__.7285
                0x1ff2cd75        0xb drivers/mmc/built-in.o
 .rodata.__func__.7297
                0x1ff2cd80        0xa drivers/mmc/built-in.o
 .rodata.__func__.8330
                0x1ff2cd8a        0xe common/built-in.o
 .rodata.__func__.8412
                0x1ff2cd98        0xa drivers/net/built-in.o
 .rodata.__func__.8926
                0x1ff2cda2       0x19 drivers/spi/built-in.o
 .rodata.__func__.8959
                0x1ff2cdbb       0x13 drivers/spi/built-in.o
 .rodata.__func__.9043
                0x1ff2cdce       0x10 drivers/spi/built-in.o
 .rodata._ctype
                0x1ff2cdde      0x100 lib/built-in.o
                0x1ff2cdde                _ctype
 .rodata.default_environment
                0x1ff2cede      0x872 common/built-in.o
                0x1ff2cede                default_environment
 .rodata.delims.6821
                0x1ff2d750        0x3 common/built-in.o
 .rodata.digits.6825
                0x1ff2d753       0x10 lib/built-in.o
 .rodata.env_flags_varaccess_rep
                0x1ff2d763        0x5 common/built-in.o
 .rodata.env_flags_vartype_rep
                0x1ff2d768        0x7 common/built-in.o
 .rodata.erase_seq
                0x1ff2d76f        0x4 common/built-in.o
 .rodata.hex_asc
                0x1ff2d773       0x11 lib/built-in.o
 .rodata.names.6826
                0x1ff2d784        0x6 lib/built-in.o
 .rodata.sha1_padding
                0x1ff2d78a       0x40 lib/built-in.o
 .rodata.spi_read_cmds_array
                0x1ff2d7ca        0x5 drivers/mtd/spi/built-in.o
 .rodata.str1.1
                0x1ff2d7cf       0x65 arch/arm/cpu/armv7/built-in.o
 .rodata.str1.1
                0x1ff2d834      0x1d9 arch/arm/cpu/armv7/zynq/built-in.o
                                0x1e3 (size before relaxing)
 .rodata.str1.1
                0x1ff2da0d      0x3b9 arch/arm/lib/built-in.o
                                0x3d7 (size before relaxing)
 .rodata.str1.1
                0x1ff2ddc6       0x57 board/xilinx/zynq/built-in.o
                                 0x58 (size before relaxing)
 .rodata.str1.1
                0x1ff2de1d     0x54c5 common/built-in.o
                               0x5a67 (size before relaxing)
 .rodata.str1.1
                0x1ff332e2      0x408 disk/built-in.o
                                0x437 (size before relaxing)
 .rodata.str1.1
                0x1ff336ea      0x2cc drivers/built-in.o
                                0x2e0 (size before relaxing)
 .rodata.str1.1
                0x1ff339b6      0x314 drivers/mmc/built-in.o
                                0x36a (size before relaxing)
 .rodata.str1.1
                0x1ff33cca      0x2c9 drivers/mtd/spi/built-in.o
                                0x2cc (size before relaxing)
 .rodata.str1.1
                0x1ff33f93       0xb5 drivers/net/built-in.o
                                 0xc4 (size before relaxing)
 .rodata.str1.1
                0x1ff34048      0x1ce drivers/net/phy/built-in.o
                                0x1e3 (size before relaxing)
 .rodata.str1.1
                0x1ff34216       0x57 drivers/serial/built-in.o
                                 0x92 (size before relaxing)
 .rodata.str1.1
                0x1ff3426d       0x90 drivers/spi/built-in.o
                                 0xb2 (size before relaxing)
 .rodata.str1.1
                0x1ff342fd      0x6f5 fs/built-in.o
                                0x762 (size before relaxing)
 .rodata.str1.1
                0x1ff349f2      0x44e lib/built-in.o
                                0x470 (size before relaxing)
 .rodata.str1.1
                0x1ff34e40       0xf1 lib/libfdt/built-in.o
                                0x11c (size before relaxing)
 .rodata.str1.1
                0x1ff34f31      0x777 net/built-in.o
                                0x8e4 (size before relaxing)
 .rodata.str1.1
                0x1ff356a8       0x1b /home/kartha/Avnet-Digilent-ZedBoard-2014.2/build/linux/u-boot/u-boot-plnx/arch/arm/lib/eabi_compat.o
 .rodata.tab_seq
                0x1ff356c3        0x9 common/built-in.o
 .rodata.version_string
                0x1ff356cc       0x28 common/built-in.o
                0x1ff356cc                version_string

.hash           0x1ff356f4       0x2c
 .hash          0x1ff356f4       0x2c arch/arm/cpu/armv7/start.o
                0x1ff35720                . = ALIGN (0x4)

.data           0x1ff35720     0x195a
 *(.data*)
 .data.slcr_lock
                0x1ff35720        0x4 arch/arm/cpu/armv7/zynq/built-in.o
 .data.init_sequence
                0x1ff35724       0x28 arch/arm/lib/built-in.o
                0x1ff35724                init_sequence
 .data.fpga010  0x1ff3574c       0x18 board/xilinx/zynq/built-in.o
                0x1ff3574c                fpga010
 .data.fpga015  0x1ff35764       0x18 board/xilinx/zynq/built-in.o
                0x1ff35764                fpga015
 .data.fpga100  0x1ff3577c       0x18 board/xilinx/zynq/built-in.o
                0x1ff3577c                fpga100
 .data.fpga030  0x1ff35794       0x18 board/xilinx/zynq/built-in.o
                0x1ff35794                fpga030
 .data.fpga020  0x1ff357ac       0x18 board/xilinx/zynq/built-in.o
                0x1ff357ac                fpga020
 .data.fpga045  0x1ff357c4       0x18 board/xilinx/zynq/built-in.o
                0x1ff357c4                fpga045
 .data.bootm_help_text
                0x1ff357dc      0x4ce common/built-in.o
 *fill*         0x1ff35caa        0x2 
 .data.cmd_bootm_sub
                0x1ff35cac       0xd8 common/built-in.o
 .data.clk_help_text
                0x1ff35d84       0x1f common/built-in.o
 *fill*         0x1ff35da3        0x1 
 .data.cmd_clk_sub
                0x1ff35da4       0x18 common/built-in.o
 .data.root.6893
                0x1ff35dbc        0x2 common/built-in.o
 .data.tabs.6976
                0x1ff35dbe       0x21 common/built-in.o
 .data.fdt_help_text
                0x1ff35ddf      0x5e3 common/built-in.o
 *fill*         0x1ff363c2        0x2 
 .data.do_echo  0x1ff363c4        0x4 common/built-in.o
 .data.dp_last_length
                0x1ff363c8        0x4 common/built-in.o
 .data.curr_device
                0x1ff363cc        0x4 common/built-in.o
 .data.env_help_text
                0x1ff363d0      0x255 common/built-in.o
 *fill*         0x1ff36625        0x3 
 .data.env_id   0x1ff36628        0x4 common/built-in.o
 .data.cmd_env_sub
                0x1ff3662c       0xf0 common/built-in.o
 .data.source_help_text
                0x1ff3671c       0xac common/built-in.o
 .data.imgextract_help_text
                0x1ff367c8       0xb2 common/built-in.o
 *fill*         0x1ff3687a        0x2 
 .data.av_      0x1ff3687c      0x408 common/built-in.o
 .data.sbrk_base
                0x1ff36c84        0x4 common/built-in.o
 .data.trim_threshold
                0x1ff36c88        0x4 common/built-in.o
 .data.first_call
                0x1ff36c8c        0x8 common/built-in.o
 .data.env_htab
                0x1ff36c94       0x10 common/built-in.o
                0x1ff36c94                env_htab
 .data.env_name_spec
                0x1ff36ca4        0x4 common/built-in.o
                0x1ff36ca4                env_name_spec
 .data.reserved_list
                0x1ff36ca8       0x84 common/built-in.o
 .data.hist_cur
                0x1ff36d2c        0x4 common/built-in.o
 .data.stdio_names
                0x1ff36d30        0xc common/built-in.o
                0x1ff36d30                stdio_names
 .data.next_desc
                0x1ff36d3c        0x4 drivers/built-in.o
 .data.cur_dev_num
                0x1ff36d40        0x4 drivers/mmc/built-in.o
 .data.cmd_timeout.7240
                0x1ff36d44        0x4 drivers/mmc/built-in.o
 .data.M88E1111S_driver
                0x1ff36d48       0x34 drivers/net/phy/built-in.o
 .data.M88E1310_driver
                0x1ff36d7c       0x34 drivers/net/phy/built-in.o
 .data.M88E1011S_driver
                0x1ff36db0       0x34 drivers/net/phy/built-in.o
 .data.M88E1118_driver
                0x1ff36de4       0x34 drivers/net/phy/built-in.o
 .data.M88E1518_driver
                0x1ff36e18       0x34 drivers/net/phy/built-in.o
 .data.M88E1145_driver
                0x1ff36e4c       0x34 drivers/net/phy/built-in.o
 .data.M88E1149S_driver
                0x1ff36e80       0x34 drivers/net/phy/built-in.o
 .data.M88E1121R_driver
                0x1ff36eb4       0x34 drivers/net/phy/built-in.o
 .data.M88E1118R_driver
                0x1ff36ee8       0x34 drivers/net/phy/built-in.o
 .data.phy_drivers
                0x1ff36f1c        0x8 drivers/net/phy/built-in.o
 .data.genphy_driver
                0x1ff36f24       0x34 drivers/net/phy/built-in.o
 .data.uart_zynq_serial0_device
                0x1ff36f58       0x30 drivers/serial/built-in.o
                0x1ff36f58                uart_zynq_serial0_device
 .data.uart_zynq_serial1_device
                0x1ff36f88       0x30 drivers/serial/built-in.o
                0x1ff36f88                uart_zynq_serial1_device
 .data.flash_inst
                0x1ff36fb8       0x45 drivers/spi/built-in.o
 *fill*         0x1ff36ffd        0x3 
 .data.ext4fs_indir3_blkno
                0x1ff37000        0x4 fs/built-in.o
                0x1ff37000                ext4fs_indir3_blkno
 .data.ext4fs_indir1_blkno
                0x1ff37004        0x4 fs/built-in.o
                0x1ff37004                ext4fs_indir1_blkno
 .data.ext4fs_indir2_blkno
                0x1ff37008        0x4 fs/built-in.o
                0x1ff37008                ext4fs_indir2_blkno
 .data.fstypes  0x1ff3700c       0x48 fs/built-in.o
 .data.NetOurNativeVLAN
                0x1ff37054        0x2 net/built-in.o
                0x1ff37054                NetOurNativeVLAN
 *fill*         0x1ff37056        0x2 
 .data.first_call.7004
                0x1ff37058        0x4 net/built-in.o
 .data.NetBcastAddr
                0x1ff3705c        0x6 net/built-in.o
                0x1ff3705c                NetBcastAddr
 .data.NetOurVLAN
                0x1ff37062        0x2 net/built-in.o
                0x1ff37062                NetOurVLAN
 .data.nfs_offset
                0x1ff37064        0x4 net/built-in.o
 .data.TftpTimeoutCountMax
                0x1ff37068        0x4 net/built-in.o
 .data.TftpRRQTimeoutCountMax
                0x1ff3706c        0x4 net/built-in.o
                0x1ff3706c                TftpRRQTimeoutCountMax
 .data.TftpBlkSizeOption
                0x1ff37070        0x2 net/built-in.o
 *fill*         0x1ff37072        0x2 
 .data.TftpTimeoutMSecs
                0x1ff37074        0x4 net/built-in.o
 .data.TftpBlkSize
                0x1ff37078        0x2 net/built-in.o

.got            0x1ff3707c        0x0
 .got           0x00000000        0x0 arch/arm/cpu/armv7/start.o

.got.plt        0x1ff3707c        0xc
 .got.plt       0x1ff3707c        0xc arch/arm/cpu/armv7/start.o
                0x1ff3707c                _GLOBAL_OFFSET_TABLE_

.igot.plt       0x1ff37088        0x0
 .igot.plt      0x00000000        0x0 arch/arm/cpu/armv7/start.o
                0x1ff37088                . = ALIGN (0x4)
                0x1ff37088                . = .
                0x1ff37088                . = ALIGN (0x4)

.u_boot_list    0x1ff37088      0x600
 *(SORT(.u_boot_list*))
 .u_boot_list_2_cmd_1
                0x1ff37088        0x0 common/built-in.o
 .u_boot_list_2_cmd_2_askenv
                0x1ff37088       0x18 common/built-in.o
                0x1ff37088                _u_boot_list_2_cmd_2_askenv
 .u_boot_list_2_cmd_2_base
                0x1ff370a0       0x18 common/built-in.o
                0x1ff370a0                _u_boot_list_2_cmd_2_base
 .u_boot_list_2_cmd_2_bdinfo
                0x1ff370b8       0x18 common/built-in.o
                0x1ff370b8                _u_boot_list_2_cmd_2_bdinfo
 .u_boot_list_2_cmd_2_boot
                0x1ff370d0       0x18 common/built-in.o
                0x1ff370d0                _u_boot_list_2_cmd_2_boot
 .u_boot_list_2_cmd_2_bootd
                0x1ff370e8       0x18 common/built-in.o
                0x1ff370e8                _u_boot_list_2_cmd_2_bootd
 .u_boot_list_2_cmd_2_bootm
                0x1ff37100       0x18 common/built-in.o
                0x1ff37100                _u_boot_list_2_cmd_2_bootm
 .u_boot_list_2_cmd_2_bootp
                0x1ff37118       0x18 common/built-in.o
                0x1ff37118                _u_boot_list_2_cmd_2_bootp
 .u_boot_list_2_cmd_2_clk
                0x1ff37130       0x18 common/built-in.o
                0x1ff37130                _u_boot_list_2_cmd_2_clk
 .u_boot_list_2_cmd_2_cmp
                0x1ff37148       0x18 common/built-in.o
                0x1ff37148                _u_boot_list_2_cmd_2_cmp
 .u_boot_list_2_cmd_2_coninfo
                0x1ff37160       0x18 common/built-in.o
                0x1ff37160                _u_boot_list_2_cmd_2_coninfo
 .u_boot_list_2_cmd_2_cp
                0x1ff37178       0x18 common/built-in.o
                0x1ff37178                _u_boot_list_2_cmd_2_cp
 .u_boot_list_2_cmd_2_crc32
                0x1ff37190       0x18 common/built-in.o
                0x1ff37190                _u_boot_list_2_cmd_2_crc32
 .u_boot_list_2_cmd_2_dcache
                0x1ff371a8       0x18 common/built-in.o
                0x1ff371a8                _u_boot_list_2_cmd_2_dcache
 .u_boot_list_2_cmd_2_dhcp
                0x1ff371c0       0x18 common/built-in.o
                0x1ff371c0                _u_boot_list_2_cmd_2_dhcp
 .u_boot_list_2_cmd_2_echo
                0x1ff371d8       0x18 common/built-in.o
                0x1ff371d8                _u_boot_list_2_cmd_2_echo
 .u_boot_list_2_cmd_2_editenv
                0x1ff371f0       0x18 common/built-in.o
                0x1ff371f0                _u_boot_list_2_cmd_2_editenv
 .u_boot_list_2_cmd_2_env
                0x1ff37208       0x18 common/built-in.o
                0x1ff37208                _u_boot_list_2_cmd_2_env
 .u_boot_list_2_cmd_2_exit
                0x1ff37220       0x18 common/built-in.o
                0x1ff37220                _u_boot_list_2_cmd_2_exit
 .u_boot_list_2_cmd_2_ext2load
                0x1ff37238       0x18 common/built-in.o
                0x1ff37238                _u_boot_list_2_cmd_2_ext2load
 .u_boot_list_2_cmd_2_ext2ls
                0x1ff37250       0x18 common/built-in.o
                0x1ff37250                _u_boot_list_2_cmd_2_ext2ls
 .u_boot_list_2_cmd_2_false
                0x1ff37268       0x18 common/built-in.o
                0x1ff37268                _u_boot_list_2_cmd_2_false
 .u_boot_list_2_cmd_2_fatinfo
                0x1ff37280       0x18 common/built-in.o
                0x1ff37280                _u_boot_list_2_cmd_2_fatinfo
 .u_boot_list_2_cmd_2_fatload
                0x1ff37298       0x18 common/built-in.o
                0x1ff37298                _u_boot_list_2_cmd_2_fatload
 .u_boot_list_2_cmd_2_fatls
                0x1ff372b0       0x18 common/built-in.o
                0x1ff372b0                _u_boot_list_2_cmd_2_fatls
 .u_boot_list_2_cmd_2_fatwrite
                0x1ff372c8       0x18 common/built-in.o
                0x1ff372c8                _u_boot_list_2_cmd_2_fatwrite
 .u_boot_list_2_cmd_2_fdt
                0x1ff372e0       0x18 common/built-in.o
                0x1ff372e0                _u_boot_list_2_cmd_2_fdt
 .u_boot_list_2_cmd_2_fpga
                0x1ff372f8       0x18 common/built-in.o
                0x1ff372f8                _u_boot_list_2_cmd_2_fpga
 .u_boot_list_2_cmd_2_go
                0x1ff37310       0x18 common/built-in.o
                0x1ff37310                _u_boot_list_2_cmd_2_go
 .u_boot_list_2_cmd_2_help
                0x1ff37328       0x18 common/built-in.o
                0x1ff37328                _u_boot_list_2_cmd_2_help
 .u_boot_list_2_cmd_2_icache
                0x1ff37340       0x18 common/built-in.o
                0x1ff37340                _u_boot_list_2_cmd_2_icache
 .u_boot_list_2_cmd_2_iminfo
                0x1ff37358       0x18 common/built-in.o
                0x1ff37358                _u_boot_list_2_cmd_2_iminfo
 .u_boot_list_2_cmd_2_imxtract
                0x1ff37370       0x18 common/built-in.o
                0x1ff37370                _u_boot_list_2_cmd_2_imxtract
 .u_boot_list_2_cmd_2_itest
                0x1ff37388       0x18 common/built-in.o
                0x1ff37388                _u_boot_list_2_cmd_2_itest
 .u_boot_list_2_cmd_2_loadb
                0x1ff373a0       0x18 common/built-in.o
                0x1ff373a0                _u_boot_list_2_cmd_2_loadb
 .u_boot_list_2_cmd_2_loads
                0x1ff373b8       0x18 common/built-in.o
                0x1ff373b8                _u_boot_list_2_cmd_2_loads
 .u_boot_list_2_cmd_2_loadx
                0x1ff373d0       0x18 common/built-in.o
                0x1ff373d0                _u_boot_list_2_cmd_2_loadx
 .u_boot_list_2_cmd_2_loady
                0x1ff373e8       0x18 common/built-in.o
                0x1ff373e8                _u_boot_list_2_cmd_2_loady
 .u_boot_list_2_cmd_2_loop
                0x1ff37400       0x18 common/built-in.o
                0x1ff37400                _u_boot_list_2_cmd_2_loop
 .u_boot_list_2_cmd_2_md
                0x1ff37418       0x18 common/built-in.o
                0x1ff37418                _u_boot_list_2_cmd_2_md
 .u_boot_list_2_cmd_2_mm
                0x1ff37430       0x18 common/built-in.o
                0x1ff37430                _u_boot_list_2_cmd_2_mm
 .u_boot_list_2_cmd_2_mmc
                0x1ff37448       0x18 common/built-in.o
                0x1ff37448                _u_boot_list_2_cmd_2_mmc
 .u_boot_list_2_cmd_2_mmcinfo
                0x1ff37460       0x18 common/built-in.o
                0x1ff37460                _u_boot_list_2_cmd_2_mmcinfo
 .u_boot_list_2_cmd_2_mw
                0x1ff37478       0x18 common/built-in.o
                0x1ff37478                _u_boot_list_2_cmd_2_mw
 .u_boot_list_2_cmd_2_nfs
                0x1ff37490       0x18 common/built-in.o
                0x1ff37490                _u_boot_list_2_cmd_2_nfs
 .u_boot_list_2_cmd_2_nm
                0x1ff374a8       0x18 common/built-in.o
                0x1ff374a8                _u_boot_list_2_cmd_2_nm
 .u_boot_list_2_cmd_2_ping
                0x1ff374c0       0x18 common/built-in.o
                0x1ff374c0                _u_boot_list_2_cmd_2_ping
 .u_boot_list_2_cmd_2_printenv
                0x1ff374d8       0x18 common/built-in.o
                0x1ff374d8                _u_boot_list_2_cmd_2_printenv
 .u_boot_list_2_cmd_2_question_mark
                0x1ff374f0       0x18 common/built-in.o
                0x1ff374f0                _u_boot_list_2_cmd_2_question_mark
 .u_boot_list_2_cmd_2_reset
                0x1ff37508       0x18 common/built-in.o
                0x1ff37508                _u_boot_list_2_cmd_2_reset
 .u_boot_list_2_cmd_2_run
                0x1ff37520       0x18 common/built-in.o
                0x1ff37520                _u_boot_list_2_cmd_2_run
 .u_boot_list_2_cmd_2_saveenv
                0x1ff37538       0x18 common/built-in.o
                0x1ff37538                _u_boot_list_2_cmd_2_saveenv
 .u_boot_list_2_cmd_2_saves
                0x1ff37550       0x18 common/built-in.o
                0x1ff37550                _u_boot_list_2_cmd_2_saves
 .u_boot_list_2_cmd_2_setenv
                0x1ff37568       0x18 common/built-in.o
                0x1ff37568                _u_boot_list_2_cmd_2_setenv
 .u_boot_list_2_cmd_2_sf
                0x1ff37580       0x18 common/built-in.o
                0x1ff37580                _u_boot_list_2_cmd_2_sf
 .u_boot_list_2_cmd_2_showvar
                0x1ff37598       0x18 common/built-in.o
                0x1ff37598                _u_boot_list_2_cmd_2_showvar
 .u_boot_list_2_cmd_2_sleep
                0x1ff375b0       0x18 common/built-in.o
                0x1ff375b0                _u_boot_list_2_cmd_2_sleep
 .u_boot_list_2_cmd_2_source
                0x1ff375c8       0x18 common/built-in.o
                0x1ff375c8                _u_boot_list_2_cmd_2_source
 .u_boot_list_2_cmd_2_sspi
                0x1ff375e0       0x18 common/built-in.o
                0x1ff375e0                _u_boot_list_2_cmd_2_sspi
 .u_boot_list_2_cmd_2_test
                0x1ff375f8       0x18 common/built-in.o
                0x1ff375f8                _u_boot_list_2_cmd_2_test
 .u_boot_list_2_cmd_2_tftpboot
                0x1ff37610       0x18 common/built-in.o
                0x1ff37610                _u_boot_list_2_cmd_2_tftpboot
 .u_boot_list_2_cmd_2_true
                0x1ff37628       0x18 common/built-in.o
                0x1ff37628                _u_boot_list_2_cmd_2_true
 .u_boot_list_2_cmd_2_version
                0x1ff37640       0x18 common/built-in.o
                0x1ff37640                _u_boot_list_2_cmd_2_version
 .u_boot_list_2_cmd_3
                0x1ff37658        0x0 common/built-in.o
 .u_boot_list_2_env_clbk_1
                0x1ff37658        0x0 common/built-in.o
 .u_boot_list_2_env_clbk_2_baudrate
                0x1ff37658        0x8 drivers/serial/built-in.o
                0x1ff37658                _u_boot_list_2_env_clbk_2_baudrate
 .u_boot_list_2_env_clbk_2_bootfile
                0x1ff37660        0x8 net/built-in.o
                0x1ff37660                _u_boot_list_2_env_clbk_2_bootfile
 .u_boot_list_2_env_clbk_2_callbacks
                0x1ff37668        0x8 common/built-in.o
                0x1ff37668                _u_boot_list_2_env_clbk_2_callbacks
 .u_boot_list_2_env_clbk_2_console
                0x1ff37670        0x8 common/built-in.o
                0x1ff37670                _u_boot_list_2_env_clbk_2_console
 .u_boot_list_2_env_clbk_2_flags
                0x1ff37678        0x8 common/built-in.o
                0x1ff37678                _u_boot_list_2_env_clbk_2_flags
 .u_boot_list_2_env_clbk_2_loadaddr
                0x1ff37680        0x8 common/built-in.o
                0x1ff37680                _u_boot_list_2_env_clbk_2_loadaddr
 .u_boot_list_2_env_clbk_3
                0x1ff37688        0x0 common/built-in.o
                0x1ff37688                . = ALIGN (0x4)

.image_copy_end
                0x1ff37688        0x0
 *(.__image_copy_end)
 .__image_copy_end
                0x1ff37688        0x0 arch/arm/lib/built-in.o

.rel_dyn_start  0x1ff37688        0x0
 *(.__rel_dyn_start)
 .__rel_dyn_start
                0x1ff37688        0x0 arch/arm/lib/built-in.o

.rel.dyn        0x1ff37688     0x6688
 *(.rel*)
 .rel.got       0x00000000        0x0 arch/arm/cpu/armv7/start.o
 .rel.plt       0x00000000        0x0 arch/arm/cpu/armv7/start.o
 .rel.iplt      0x00000000        0x0 arch/arm/cpu/armv7/start.o
 .rel.text      0x1ff37688       0x78 arch/arm/cpu/armv7/start.o
 .rel.text.v7_dcache_inval_range
                0x1ff37700       0x18 arch/arm/cpu/armv7/start.o
 .rel.text.ddr2x_get_rate
                0x1ff37718        0x8 arch/arm/cpu/armv7/start.o
 .rel.text.ddr3x_get_rate
                0x1ff37720        0x8 arch/arm/cpu/armv7/start.o
 .rel.text.zynq_clk_periph_get_rate
                0x1ff37728        0x8 arch/arm/cpu/armv7/start.o
 .rel.text.zynq_clk_periph_set_rate
                0x1ff37730        0x8 arch/arm/cpu/armv7/start.o
 .rel.text.zynq_clk_register_periph_clk
                0x1ff37738       0x18 arch/arm/cpu/armv7/start.o
 .rel.text.zynq_clk_early_init
                0x1ff37750        0x8 arch/arm/cpu/armv7/start.o
 .rel.text.get_uart_clk
                0x1ff37758       0x10 arch/arm/cpu/armv7/start.o
 .rel.text.set_cpu_clk_info
                0x1ff37768      0x208 arch/arm/cpu/armv7/start.o
 .rel.text.zynq_clk_get_rate
                0x1ff37970        0x8 arch/arm/cpu/armv7/start.o
 .rel.text.zynq_clk_set_rate
                0x1ff37978        0x8 arch/arm/cpu/armv7/start.o
 .rel.text.zynq_clk_get_name
                0x00000000        0x0 arch/arm/cpu/armv7/start.o
 .rel.text.soc_clk_dump
                0x1ff37980       0x18 arch/arm/cpu/armv7/start.o
 .rel.text.zynq_ddrc_init
                0x1ff37998       0x10 arch/arm/cpu/armv7/start.o
 .rel.text.zynq_slcr_lock
                0x1ff379a8        0x8 arch/arm/cpu/armv7/start.o
 .rel.text.zynq_slcr_unlock
                0x1ff379b0        0x8 arch/arm/cpu/armv7/start.o
 .rel.text.zynq_slcr_gem_clk_setup
                0x1ff379b8        0x8 arch/arm/cpu/armv7/start.o
 .rel.text.zynq_slcr_get_mio_pin_status
                0x1ff379c0        0x8 arch/arm/cpu/armv7/start.o
 .rel.rodata.mio_periphs
                0x1ff379c8       0x70 arch/arm/cpu/armv7/start.o
 .rel.text.display_banner
                0x1ff37a38       0x10 arch/arm/cpu/armv7/start.o
 .rel.text.init_baudrate
                0x1ff37a48        0x8 arch/arm/cpu/armv7/start.o
 .rel.text.board_init_f
                0x1ff37a50       0x30 arch/arm/cpu/armv7/start.o
 .rel.text.board_init_r
                0x1ff37a80       0x30 arch/arm/cpu/armv7/start.o
 .rel.text.boot_jump_linux
                0x1ff37ab0       0x28 arch/arm/cpu/armv7/start.o
 .rel.text.boot_prep_linux
                0x1ff37ad8       0x10 arch/arm/cpu/armv7/start.o
 .rel.text.boot_prep_vxworks
                0x1ff37ae8       0x10 arch/arm/cpu/armv7/start.o
 .rel.text.__enable_caches
                0x00000000        0x0 arch/arm/cpu/armv7/start.o
 .rel.text.interrupt_init
                0x1ff37af8        0x8 arch/arm/cpu/armv7/start.o
 .rel.text.bad_mode
                0x1ff37b00        0x8 arch/arm/cpu/armv7/start.o
 .rel.text.show_regs
                0x1ff37b08       0x50 arch/arm/cpu/armv7/start.o
 .rel.text.do_undefined_instruction
                0x1ff37b58        0x8 arch/arm/cpu/armv7/start.o
 .rel.text.do_software_interrupt
                0x1ff37b60        0x8 arch/arm/cpu/armv7/start.o
 .rel.text.do_prefetch_abort
                0x1ff37b68        0x8 arch/arm/cpu/armv7/start.o
 .rel.text.do_data_abort
                0x1ff37b70        0x8 arch/arm/cpu/armv7/start.o
 .rel.text.do_not_used
                0x1ff37b78        0x8 arch/arm/cpu/armv7/start.o
 .rel.text.do_fiq
                0x1ff37b80        0x8 arch/arm/cpu/armv7/start.o
 .rel.text.do_irq
                0x1ff37b88        0x8 arch/arm/cpu/armv7/start.o
 .rel.text.do_reset
                0x1ff37b90        0x8 arch/arm/cpu/armv7/start.o
 .rel.rodata    0x1ff37b98      0x100 arch/arm/cpu/armv7/start.o
 .rel.data.init_sequence
                0x1ff37c98       0x48 arch/arm/cpu/armv7/start.o
 .rel.text.board_init
                0x1ff37ce0       0x38 arch/arm/cpu/armv7/start.o
 .rel.text.board_late_init
                0x00000000        0x0 arch/arm/cpu/armv7/start.o
 .rel.data.fpga010
                0x1ff37d18        0x8 arch/arm/cpu/armv7/start.o
 .rel.data.fpga015
                0x1ff37d20        0x8 arch/arm/cpu/armv7/start.o
 .rel.data.fpga100
                0x1ff37d28        0x8 arch/arm/cpu/armv7/start.o
 .rel.data.fpga030
                0x1ff37d30        0x8 arch/arm/cpu/armv7/start.o
 .rel.data.fpga020
                0x1ff37d38        0x8 arch/arm/cpu/armv7/start.o
 .rel.data.fpga045
                0x1ff37d40        0x8 arch/arm/cpu/armv7/start.o
 .rel.text.print_num
                0x1ff37d48        0x8 arch/arm/cpu/armv7/start.o
 .rel.text.do_bdinfo
                0x1ff37d50       0xb0 arch/arm/cpu/armv7/start.o
 .rel.text.do_go
                0x1ff37e00       0x10 arch/arm/cpu/armv7/start.o
 .rel.text.do_bootm_standalone
                0x1ff37e10       0x18 arch/arm/cpu/armv7/start.o
 .rel.text.do_bootd
                0x1ff37e28        0x8 arch/arm/cpu/armv7/start.o
 .rel.text.image_info
                0x1ff37e30       0x58 arch/arm/cpu/armv7/start.o
 .rel.text.do_bootm_rtems
                0x1ff37e88       0x20 arch/arm/cpu/armv7/start.o
 .rel.text.do_bootm_plan9
                0x1ff37ea8       0x30 arch/arm/cpu/armv7/start.o
 .rel.text.do_bootm_netbsd
                0x1ff37ed8       0x30 arch/arm/cpu/armv7/start.o
 .rel.text.do_iminfo
                0x1ff37f08        0x8 arch/arm/cpu/armv7/start.o
 .rel.text.do_bootm_states.isra.19.constprop.21
                0x1ff37f10      0x138 arch/arm/cpu/armv7/start.o
 .rel.text.do_bootm
                0x1ff38048       0x18 arch/arm/cpu/armv7/start.o
 .rel.text.bootm_maybe_autostart
                0x1ff38060       0x20 arch/arm/cpu/armv7/start.o
 .rel.text.do_bootvx_fdt
                0x1ff38080       0x38 arch/arm/cpu/armv7/start.o
 .rel.text.do_bootm_vxworks
                0x1ff380b8       0x18 arch/arm/cpu/armv7/start.o
 .rel.text.parse_argv
                0x1ff380d0       0x18 arch/arm/cpu/armv7/start.o
 .rel.text.invalidate_icache_all
                0x00000000        0x0 arch/arm/cpu/armv7/start.o
 .rel.text.do_icache
                0x1ff380e8       0x18 arch/arm/cpu/armv7/start.o
 .rel.text.flush_dcache_all
                0x00000000        0x0 arch/arm/cpu/armv7/start.o
 .rel.text.do_dcache
                0x1ff38100       0x18 arch/arm/cpu/armv7/start.o
 .rel.text.do_clk
                0x1ff38118        0x8 arch/arm/cpu/armv7/start.o
 .rel.text.do_coninfo
                0x1ff38120       0x28 arch/arm/cpu/armv7/start.o
 .rel.text.do_echo
                0x1ff38148        0x8 arch/arm/cpu/armv7/start.o
 .rel.text.do_fat_fsinfo
                0x1ff38150       0x10 arch/arm/cpu/armv7/start.o
 .rel.text.do_fat_fswrite
                0x1ff38160       0x18 arch/arm/cpu/armv7/start.o
 .rel.text.fdt_valid
                0x1ff38178       0x28 arch/arm/cpu/armv7/start.o
 .rel.text.is_printable_string
                0x1ff381a0        0x8 arch/arm/cpu/armv7/start.o
 .rel.text.print_data
                0x1ff381a8       0x58 arch/arm/cpu/armv7/start.o
 .rel.text.set_working_fdt_addr
                0x1ff38200       0x10 arch/arm/cpu/armv7/start.o
 .rel.text.do_fdt
                0x1ff38210      0x238 arch/arm/cpu/armv7/start.o
 .rel.text.do_fpga
                0x1ff38448       0xd0 arch/arm/cpu/armv7/start.o
 .rel.text.do_help
                0x1ff38518       0x10 arch/arm/cpu/armv7/start.o
 .rel.text.binary_test
                0x1ff38528       0x78 arch/arm/cpu/armv7/start.o
 .rel.text.do_itest
                0x1ff385a0       0x40 arch/arm/cpu/armv7/start.o
 .rel.text.bin_data_init
                0x1ff385e0       0x18 arch/arm/cpu/armv7/start.o
 .rel.text.k_data_save
                0x1ff385f8       0x30 arch/arm/cpu/armv7/start.o
 .rel.text.k_data_restore
                0x1ff38628       0x30 arch/arm/cpu/armv7/start.o
 .rel.text.do_save_serial
                0x1ff38658       0x38 arch/arm/cpu/armv7/start.o
 .rel.text.load_serial_ymodem
                0x1ff38690       0x20 arch/arm/cpu/armv7/start.o
 .rel.text.bin_data_char
                0x1ff386b0       0x10 arch/arm/cpu/armv7/start.o
 .rel.text.chk1.constprop.1
                0x1ff386c0        0x8 arch/arm/cpu/armv7/start.o
 .rel.text.s1_sendpacket.constprop.2
                0x1ff386c8       0x18 arch/arm/cpu/armv7/start.o
 .rel.text.load_serial
                0x1ff386e0       0x68 arch/arm/cpu/armv7/start.o
 .rel.text.do_load_serial
                0x1ff38748       0x30 arch/arm/cpu/armv7/start.o
 .rel.text.do_load_serial_bin
                0x1ff38778       0xe8 arch/arm/cpu/armv7/start.o
 .rel.text.do_mem_mw
                0x1ff38860        0x8 arch/arm/cpu/armv7/start.o
 .rel.text.do_mem_md
                0x1ff38868       0x20 arch/arm/cpu/armv7/start.o
 .rel.text.do_mem_cmp
                0x1ff38888       0x30 arch/arm/cpu/armv7/start.o
 .rel.text.do_mem_base
                0x1ff388b8       0x10 arch/arm/cpu/armv7/start.o
 .rel.text.do_mem_cp
                0x1ff388c8       0x10 arch/arm/cpu/armv7/start.o
 .rel.text.do_mem_crc
                0x1ff388d8        0x8 arch/arm/cpu/armv7/start.o
 .rel.text.mod_mem.isra.2
                0x1ff388e0       0x48 arch/arm/cpu/armv7/start.o
 .rel.text.do_mmcops
                0x1ff38928       0xc0 arch/arm/cpu/armv7/start.o
 .rel.text.do_mmcinfo
                0x1ff389e8       0x90 arch/arm/cpu/armv7/start.o
 .rel.text.netboot_common
                0x1ff38a78       0x88 arch/arm/cpu/armv7/start.o
 .rel.text.do_ping
                0x1ff38b00       0x18 arch/arm/cpu/armv7/start.o
 .rel.text.do_env_delete
                0x1ff38b18       0x10 arch/arm/cpu/armv7/start.o
 .rel.text.do_env_save
                0x1ff38b28       0x10 arch/arm/cpu/armv7/start.o
 .rel.text.do_env
                0x1ff38b38        0x8 arch/arm/cpu/armv7/start.o
 .rel.text.env_print
                0x1ff38b40       0x18 arch/arm/cpu/armv7/start.o
 .rel.text.do_env_print
                0x1ff38b58       0x10 arch/arm/cpu/armv7/start.o
 .rel.text.do_env_import
                0x1ff38b68       0x50 arch/arm/cpu/armv7/start.o
 .rel.text.do_env_default
                0x1ff38bb8        0x8 arch/arm/cpu/armv7/start.o
 .rel.text._do_env_set.isra.0
                0x1ff38bc0       0x30 arch/arm/cpu/armv7/start.o
 .rel.text.do_env_ask
                0x1ff38bf0       0x10 arch/arm/cpu/armv7/start.o
 .rel.text.get_env_id
                0x1ff38c00        0x8 arch/arm/cpu/armv7/start.o
 .rel.text.setenv
                0x1ff38c08        0x8 arch/arm/cpu/armv7/start.o
 .rel.text.setenv_hex
                0x1ff38c10        0x8 arch/arm/cpu/armv7/start.o
 .rel.text.do_env_export
                0x1ff38c18       0x40 arch/arm/cpu/armv7/start.o
 .rel.text.getenv_f
                0x1ff38c58        0x8 arch/arm/cpu/armv7/start.o
 .rel.text.getenv
                0x1ff38c60        0x8 arch/arm/cpu/armv7/start.o
 .rel.text.do_env_edit
                0x1ff38c68       0x10 arch/arm/cpu/armv7/start.o
 .rel.text.do_spi_flash
                0x1ff38c78       0xa8 arch/arm/cpu/armv7/start.o
 .rel.text.source
                0x1ff38d20       0x68 arch/arm/cpu/armv7/start.o
 .rel.text.do_source
                0x1ff38d88       0x10 arch/arm/cpu/armv7/start.o
 .rel.text.do_spi
                0x1ff38d98       0x60 arch/arm/cpu/armv7/start.o
 .rel.text.do_test
                0x1ff38df8       0x78 arch/arm/cpu/armv7/start.o
 .rel.text.do_version
                0x1ff38e70       0x20 arch/arm/cpu/armv7/start.o
 .rel.text.do_imgextract
                0x1ff38e90       0xc8 arch/arm/cpu/armv7/start.o
 .rel.text.find_cmd
                0x1ff38f58       0x10 arch/arm/cpu/armv7/start.o
 .rel.text.cmd_usage
                0x1ff38f68       0x18 arch/arm/cpu/armv7/start.o
 .rel.text._do_help
                0x1ff38f80       0x10 arch/arm/cpu/armv7/start.o
 .rel.text.cmd_get_data_size
                0x1ff38f90        0x8 arch/arm/cpu/armv7/start.o
 .rel.text.cmd_process
                0x1ff38f98       0x18 arch/arm/cpu/armv7/start.o
 .rel.text.console_setfile
                0x1ff38fb0       0x10 arch/arm/cpu/armv7/start.o
 .rel.text.fgetc
                0x1ff38fc0        0x8 arch/arm/cpu/armv7/start.o
 .rel.text.ftstc
                0x1ff38fc8        0x8 arch/arm/cpu/armv7/start.o
 .rel.text.fputc
                0x1ff38fd0        0x8 arch/arm/cpu/armv7/start.o
 .rel.text.fputs
                0x00000000        0x0 arch/arm/cpu/armv7/start.o
 .rel.text.puts
                0x1ff38fd8        0x8 arch/arm/cpu/armv7/start.o
 .rel.text.ctrlc
                0x1ff38fe0       0x10 arch/arm/cpu/armv7/start.o
 .rel.text.disable_ctrlc
                0x00000000        0x0 arch/arm/cpu/armv7/start.o
 .rel.text.had_ctrlc
                0x1ff38ff0        0x8 arch/arm/cpu/armv7/start.o
 .rel.text.clear_ctrlc
                0x1ff38ff8        0x8 arch/arm/cpu/armv7/start.o
 .rel.text.on_console
                0x1ff39000       0x20 arch/arm/cpu/armv7/start.o
 .rel.text.stdio_print_current_devices
                0x1ff39020       0x40 arch/arm/cpu/armv7/start.o
 .rel.text.console_init_r
                0x1ff39060       0x48 arch/arm/cpu/armv7/start.o
 .rel.text.sbrk
                0x1ff390a8       0x18 arch/arm/cpu/armv7/start.o
 .rel.text.mem_malloc_init
                0x1ff390c0       0x18 arch/arm/cpu/armv7/start.o
 .rel.text.malloc_trim
                0x1ff390d8       0x18 arch/arm/cpu/armv7/start.o
 .rel.text.free
                0x1ff390f0       0x18 arch/arm/cpu/armv7/start.o
 .rel.text.malloc
                0x1ff39108       0x40 arch/arm/cpu/armv7/start.o
 .rel.text.calloc
                0x1ff39148        0x8 arch/arm/cpu/armv7/start.o
 .rel.text.realloc
                0x1ff39150        0x8 arch/arm/cpu/armv7/start.o
 .rel.text.mallopt
                0x00000000        0x0 arch/arm/cpu/armv7/start.o
 .rel.text.env_attr_lookup
                0x1ff39158        0x8 arch/arm/cpu/armv7/start.o
 .rel.text.find_env_callback
                0x1ff39160       0x10 arch/arm/cpu/armv7/start.o
 .rel.text.on_callbacks
                0x1ff39170       0x20 arch/arm/cpu/armv7/start.o
 .rel.text.set_callback
                0x1ff39190        0x8 arch/arm/cpu/armv7/start.o
 .rel.text.env_callback_init
                0x1ff39198       0x20 arch/arm/cpu/armv7/start.o
 .rel.text.env_get_addr
                0x1ff391b8        0x8 arch/arm/cpu/armv7/start.o
 .rel.text.env_get_char
                0x1ff391c0        0x8 arch/arm/cpu/armv7/start.o
 .rel.text.set_default_env
                0x1ff391c8       0x40 arch/arm/cpu/armv7/start.o
 .rel.text.set_default_vars
                0x1ff39208       0x10 arch/arm/cpu/armv7/start.o
 .rel.text.env_import
                0x1ff39218       0x38 arch/arm/cpu/armv7/start.o
 .rel.text.env_relocate
                0x1ff39250        0x8 arch/arm/cpu/armv7/start.o
 .rel.text.skip_num
                0x1ff39258        0x8 arch/arm/cpu/armv7/start.o
 .rel.text.on_flags
                0x1ff39260       0x20 arch/arm/cpu/armv7/start.o
 .rel.text.env_flags_parse_vartype
                0x1ff39280       0x10 arch/arm/cpu/armv7/start.o
 .rel.text.env_flags_parse_varaccess
                0x1ff39290       0x10 arch/arm/cpu/armv7/start.o
 .rel.text.set_flags
                0x1ff392a0       0x10 arch/arm/cpu/armv7/start.o
 .rel.text.env_flags_init
                0x1ff392b0       0x30 arch/arm/cpu/armv7/start.o
 .rel.text.env_flags_validate
                0x1ff392e0       0x68 arch/arm/cpu/armv7/start.o
 .rel.text.saveenv
                0x1ff39348       0x50 arch/arm/cpu/armv7/start.o
 .rel.text.env_relocate_spec
                0x1ff39398       0x18 arch/arm/cpu/armv7/start.o
 .rel.text.env_init
                0x1ff393b0        0x8 arch/arm/cpu/armv7/start.o
 .rel.text.jumptable_init
                0x1ff393b8       0xc8 arch/arm/cpu/armv7/start.o
 .rel.text.of_bus_default_count_cells
                0x00000000        0x0 arch/arm/cpu/armv7/start.o
 .rel.text.fdt_initrd
                0x1ff39480       0x38 arch/arm/cpu/armv7/start.o
 .rel.text.fdt_chosen
                0x1ff394b8       0x30 arch/arm/cpu/armv7/start.o
 .rel.text.do_fixup_by_path
                0x1ff394e8        0x8 arch/arm/cpu/armv7/start.o
 .rel.text.fdt_fixup_memory_banks
                0x1ff394f0       0x58 arch/arm/cpu/armv7/start.o
 .rel.text.fdt_fixup_ethernet
                0x1ff39548       0x30 arch/arm/cpu/armv7/start.o
 .rel.text.fdt_del_node_and_alias
                0x00000000        0x0 arch/arm/cpu/armv7/start.o
 .rel.text.fdt_translate_address
                0x00000000        0x0 arch/arm/cpu/armv7/start.o
 .rel.text.fdt_node_offset_by_compat_reg
                0x00000000        0x0 arch/arm/cpu/armv7/start.o
 .rel.text.fdt_set_phandle
                0x00000000        0x0 arch/arm/cpu/armv7/start.o
 .rel.text.fdt_create_phandle
                0x00000000        0x0 arch/arm/cpu/armv7/start.o
 .rel.text.fdt_set_node_status
                0x00000000        0x0 arch/arm/cpu/armv7/start.o
 .rel.text.fdt_verify_alias_address
                0x00000000        0x0 arch/arm/cpu/armv7/start.o
 .rel.text.fdt_get_base_address
                0x00000000        0x0 arch/arm/cpu/armv7/start.o
 .rel.text.hash_block
                0x00000000        0x0 arch/arm/cpu/armv7/start.o
 .rel.text.hash_command
                0x1ff39578        0x8 arch/arm/cpu/armv7/start.o
 .rel.text.mapset
                0x1ff39580        0x8 arch/arm/cpu/armv7/start.o
 .rel.text.syntax_err
                0x1ff39588        0x8 arch/arm/cpu/armv7/start.o
 .rel.text.xmalloc
                0x1ff39590        0x8 arch/arm/cpu/armv7/start.o
 .rel.text.xrealloc
                0x1ff39598        0x8 arch/arm/cpu/armv7/start.o
 .rel.text.done_word
                0x1ff395a0        0x8 arch/arm/cpu/armv7/start.o
 .rel.text.do_showvar
                0x1ff395a8       0x20 arch/arm/cpu/armv7/start.o
 .rel.text.is_assignment
                0x1ff395c8        0x8 arch/arm/cpu/armv7/start.o
 .rel.text.file_get
                0x1ff395d0       0x30 arch/arm/cpu/armv7/start.o
 .rel.text.b_addqchr
                0x1ff39600        0x8 arch/arm/cpu/armv7/start.o
 .rel.text.get_local_var
                0x1ff39608       0x20 arch/arm/cpu/armv7/start.o
 .rel.text.set_local_var
                0x1ff39628       0x20 arch/arm/cpu/armv7/start.o
 .rel.text.insert_var_value_sub
                0x1ff39648        0x8 arch/arm/cpu/armv7/start.o
 .rel.text.unset_local_var
                0x00000000        0x0 arch/arm/cpu/armv7/start.o
 .rel.text.parse_string_outer
                0x1ff39650       0x18 arch/arm/cpu/armv7/start.o
 .rel.text.run_list_real
                0x1ff39668       0x38 arch/arm/cpu/armv7/start.o
 .rel.text.parse_stream_outer
                0x1ff396a0       0x60 arch/arm/cpu/armv7/start.o
 .rel.text.parse_file_outer
                0x1ff39700       0x10 arch/arm/cpu/armv7/start.o
 .rel.text.u_boot_hush_start
                0x1ff39710       0x18 arch/arm/cpu/armv7/start.o
 .rel.text.fdt_error
                0x1ff39728       0x10 arch/arm/cpu/armv7/start.o
 .rel.text.boot_fdt_add_mem_rsv_regions
                0x1ff39738        0x8 arch/arm/cpu/armv7/start.o
 .rel.text.boot_relocate_fdt
                0x1ff39740       0x40 arch/arm/cpu/armv7/start.o
 .rel.text.boot_get_fdt
                0x1ff39780       0x90 arch/arm/cpu/armv7/start.o
 .rel.text.image_setup_libfdt
                0x1ff39810       0x10 arch/arm/cpu/armv7/start.o
 .rel.text.fit_get_desc
                0x1ff39820        0x8 arch/arm/cpu/armv7/start.o
 .rel.text.fit_get_timestamp
                0x00000000        0x0 arch/arm/cpu/armv7/start.o
 .rel.text.fit_image_get_node
                0x1ff39828        0x8 arch/arm/cpu/armv7/start.o
 .rel.text.fit_image_get_os
                0x1ff39830        0x8 arch/arm/cpu/armv7/start.o
 .rel.text.fit_image_get_arch
                0x1ff39838        0x8 arch/arm/cpu/armv7/start.o
 .rel.text.fit_image_get_type
                0x1ff39840        0x8 arch/arm/cpu/armv7/start.o
 .rel.text.fit_image_get_comp
                0x1ff39848        0x8 arch/arm/cpu/armv7/start.o
 .rel.text.fit_image_get_load
                0x1ff39850        0x8 arch/arm/cpu/armv7/start.o
 .rel.text.fit_image_get_entry
                0x1ff39858        0x8 arch/arm/cpu/armv7/start.o
 .rel.text.fit_image_get_data
                0x1ff39860        0x8 arch/arm/cpu/armv7/start.o
 .rel.text.fit_image_hash_get_algo
                0x1ff39868        0x8 arch/arm/cpu/armv7/start.o
 .rel.text.fit_image_hash_get_value
                0x1ff39870        0x8 arch/arm/cpu/armv7/start.o
 .rel.text.fit_image_print_data
                0x1ff39878       0x58 arch/arm/cpu/armv7/start.o
 .rel.text.fit_image_print
                0x1ff398d0       0x80 arch/arm/cpu/armv7/start.o
 .rel.text.fit_set_timestamp
                0x00000000        0x0 arch/arm/cpu/armv7/start.o
 .rel.text.calculate_hash
                0x1ff39950       0x18 arch/arm/cpu/armv7/start.o
 .rel.text.fit_image_verify
                0x1ff39968       0x68 arch/arm/cpu/armv7/start.o
 .rel.text.fit_all_image_verify
                0x1ff399d0       0x28 arch/arm/cpu/armv7/start.o
 .rel.text.fit_check_format
                0x1ff399f8       0x10 arch/arm/cpu/armv7/start.o
 .rel.text.fit_conf_find_compat
                0x00000000        0x0 arch/arm/cpu/armv7/start.o
 .rel.text.fit_conf_get_node
                0x1ff39a08       0x10 arch/arm/cpu/armv7/start.o
 .rel.text.fit_conf_print
                0x1ff39a18       0x48 arch/arm/cpu/armv7/start.o
 .rel.text.fit_print_contents
                0x1ff39a60       0x58 arch/arm/cpu/armv7/start.o
 .rel.text.fit_image_select
                0x1ff39ab8       0x20 arch/arm/cpu/armv7/start.o
 .rel.text.fit_image_load
                0x1ff39ad8       0x70 arch/arm/cpu/armv7/start.o
 .rel.text.on_loadaddr
                0x1ff39b48        0x8 arch/arm/cpu/armv7/start.o
 .rel.text.getenv_bootm_low
                0x1ff39b50        0x8 arch/arm/cpu/armv7/start.o
 .rel.text.getenv_bootm_size
                0x1ff39b58       0x10 arch/arm/cpu/armv7/start.o
 .rel.text.getenv_bootm_mapsize
                0x1ff39b68        0x8 arch/arm/cpu/armv7/start.o
 .rel.text.genimg_print_size
                0x1ff39b70       0x10 arch/arm/cpu/armv7/start.o
 .rel.text.genimg_get_os_name
                0x1ff39b80       0x10 arch/arm/cpu/armv7/start.o
 .rel.text.genimg_get_arch_name
                0x1ff39b90       0x10 arch/arm/cpu/armv7/start.o
 .rel.text.genimg_get_type_name
                0x1ff39ba0       0x10 arch/arm/cpu/armv7/start.o
 .rel.text.genimg_get_comp_name
                0x1ff39bb0       0x10 arch/arm/cpu/armv7/start.o
 .rel.text.image_print_contents
                0x1ff39bc0       0x50 arch/arm/cpu/armv7/start.o
 .rel.text.genimg_get_os_id
                0x1ff39c10       0x10 arch/arm/cpu/armv7/start.o
 .rel.text.genimg_get_arch_id
                0x1ff39c20       0x10 arch/arm/cpu/armv7/start.o
 .rel.text.genimg_get_type_id
                0x1ff39c30       0x10 arch/arm/cpu/armv7/start.o
 .rel.text.genimg_get_comp_id
                0x1ff39c40       0x10 arch/arm/cpu/armv7/start.o
 .rel.text.boot_get_ramdisk
                0x1ff39c50       0x60 arch/arm/cpu/armv7/start.o
 .rel.text.boot_ramdisk_high
                0x1ff39cb0       0x20 arch/arm/cpu/armv7/start.o
 .rel.text.delete_char.part.0
                0x1ff39cd0       0x10 arch/arm/cpu/armv7/start.o
 .rel.text.cread_add_char
                0x1ff39ce0        0x8 arch/arm/cpu/armv7/start.o
 .rel.text.readline_into_buffer
                0x1ff39ce8       0xa8 arch/arm/cpu/armv7/start.o
 .rel.text.readline
                0x1ff39d90        0x8 arch/arm/cpu/armv7/start.o
 .rel.text.parse_line
                0x00000000        0x0 arch/arm/cpu/armv7/start.o
 .rel.text.main_loop
                0x1ff39d98       0x28 arch/arm/cpu/armv7/start.o
 .rel.text.do_run
                0x1ff39dc0        0x8 arch/arm/cpu/armv7/start.o
 .rel.text.miiphy_get_dev_by_name
                0x1ff39dc8       0x10 arch/arm/cpu/armv7/start.o
 .rel.text.miiphy_init
                0x1ff39dd8       0x10 arch/arm/cpu/armv7/start.o
 .rel.text.miiphy_register
                0x1ff39de8       0x50 arch/arm/cpu/armv7/start.o
 .rel.text.mdio_register
                0x00000000        0x0 arch/arm/cpu/armv7/start.o
 .rel.text.mdio_list_devices
                0x00000000        0x0 arch/arm/cpu/armv7/start.o
 .rel.text.miiphy_set_current_dev
                0x00000000        0x0 arch/arm/cpu/armv7/start.o
 .rel.text.miiphy_get_active_dev
                0x00000000        0x0 arch/arm/cpu/armv7/start.o
 .rel.text.mdio_get_current_dev
                0x00000000        0x0 arch/arm/cpu/armv7/start.o
 .rel.text.mdio_phydev_for_ethname
                0x00000000        0x0 arch/arm/cpu/armv7/start.o
 .rel.text.miiphy_get_current_dev
                0x00000000        0x0 arch/arm/cpu/armv7/start.o
 .rel.text.miiphy_listdev
                0x00000000        0x0 arch/arm/cpu/armv7/start.o
 .rel.text.miiphy_is_1000base_x
                0x00000000        0x0 arch/arm/cpu/armv7/start.o
 .rel.text.miiphy_speed
                0x00000000        0x0 arch/arm/cpu/armv7/start.o
 .rel.text.miiphy_duplex
                0x00000000        0x0 arch/arm/cpu/armv7/start.o
 .rel.text.miiphy_link
                0x00000000        0x0 arch/arm/cpu/armv7/start.o
 .rel.text.srec_decode
                0x1ff39e38       0x50 arch/arm/cpu/armv7/start.o
 .rel.text.stdio_get_list
                0x1ff39e88        0x8 arch/arm/cpu/armv7/start.o
 .rel.text.stdio_get_by_name
                0x1ff39e90        0x8 arch/arm/cpu/armv7/start.o
 .rel.text.stdio_register
                0x1ff39e98        0x8 arch/arm/cpu/armv7/start.o
 .rel.text.stdio_init
                0x1ff39ea0       0x30 arch/arm/cpu/armv7/start.o
 .rel.text.xyzModem_get_hdr
                0x1ff39ed0       0x30 arch/arm/cpu/armv7/start.o
 .rel.text.xyzModem_stream_open
                0x1ff39f00       0x10 arch/arm/cpu/armv7/start.o
 .rel.text.xyzModem_stream_read
                0x1ff39f10        0x8 arch/arm/cpu/armv7/start.o
 .rel.text.xyzModem_stream_close
                0x1ff39f18       0x20 arch/arm/cpu/armv7/start.o
 .rel.text.xyzModem_stream_terminate
                0x1ff39f38        0x8 arch/arm/cpu/armv7/start.o
 .rel.text.xyzModem_error
                0x1ff39f40       0x10 arch/arm/cpu/armv7/start.o
 .rel.rodata.boot_os
                0x1ff39f50       0x30 arch/arm/cpu/armv7/start.o
 .rel.rodata.op_table
                0x1ff39f80       0x68 arch/arm/cpu/armv7/start.o
 .rel.rodata.uimage_comp
                0x1ff39fe8       0x60 arch/arm/cpu/armv7/start.o
 .rel.rodata.uimage_os
                0x1ff3a048       0x88 arch/arm/cpu/armv7/start.o
 .rel.rodata.uimage_arch
                0x1ff3a0d0      0x168 arch/arm/cpu/armv7/start.o
 .rel.rodata.uimage_type
                0x1ff3a238      0x118 arch/arm/cpu/armv7/start.o
 .rel.rodata.CSWTCH.28
                0x1ff3a350       0x40 arch/arm/cpu/armv7/start.o
 .rel.u_boot_list_2_cmd_2_bdinfo
                0x1ff3a390       0x20 arch/arm/cpu/armv7/start.o
 .rel.u_boot_list_2_cmd_2_go
                0x1ff3a3b0       0x20 arch/arm/cpu/armv7/start.o
 .rel.u_boot_list_2_cmd_2_reset
                0x1ff3a3d0       0x20 arch/arm/cpu/armv7/start.o
 .rel.u_boot_list_2_cmd_2_iminfo
                0x1ff3a3f0       0x20 arch/arm/cpu/armv7/start.o
 .rel.u_boot_list_2_cmd_2_boot
                0x1ff3a410       0x20 arch/arm/cpu/armv7/start.o
 .rel.u_boot_list_2_cmd_2_bootd
                0x1ff3a430       0x20 arch/arm/cpu/armv7/start.o
 .rel.u_boot_list_2_cmd_2_bootm
                0x1ff3a450       0x20 arch/arm/cpu/armv7/start.o
 .rel.data.cmd_bootm_sub
                0x1ff3a470       0xd8 arch/arm/cpu/armv7/start.o
 .rel.u_boot_list_2_cmd_2_icache
                0x1ff3a548       0x20 arch/arm/cpu/armv7/start.o
 .rel.u_boot_list_2_cmd_2_dcache
                0x1ff3a568       0x20 arch/arm/cpu/armv7/start.o
 .rel.u_boot_list_2_cmd_2_clk
                0x1ff3a588       0x20 arch/arm/cpu/armv7/start.o
 .rel.data.cmd_clk_sub
                0x1ff3a5a8       0x20 arch/arm/cpu/armv7/start.o
 .rel.u_boot_list_2_cmd_2_coninfo
                0x1ff3a5c8       0x20 arch/arm/cpu/armv7/start.o
 .rel.u_boot_list_2_cmd_2_echo
                0x1ff3a5e8       0x20 arch/arm/cpu/armv7/start.o
 .rel.u_boot_list_2_cmd_2_exit
                0x1ff3a608       0x20 arch/arm/cpu/armv7/start.o
 .rel.u_boot_list_2_cmd_2_ext2ls
                0x1ff3a628       0x20 arch/arm/cpu/armv7/start.o
 .rel.u_boot_list_2_cmd_2_ext2load
                0x1ff3a648       0x20 arch/arm/cpu/armv7/start.o
 .rel.u_boot_list_2_cmd_2_fatinfo
                0x1ff3a668       0x20 arch/arm/cpu/armv7/start.o
 .rel.u_boot_list_2_cmd_2_fatwrite
                0x1ff3a688       0x20 arch/arm/cpu/armv7/start.o
 .rel.u_boot_list_2_cmd_2_fatload
                0x1ff3a6a8       0x20 arch/arm/cpu/armv7/start.o
 .rel.u_boot_list_2_cmd_2_fatls
                0x1ff3a6c8       0x20 arch/arm/cpu/armv7/start.o
 .rel.u_boot_list_2_cmd_2_fdt
                0x1ff3a6e8       0x20 arch/arm/cpu/armv7/start.o
 .rel.u_boot_list_2_cmd_2_fpga
                0x1ff3a708       0x20 arch/arm/cpu/armv7/start.o
 .rel.u_boot_list_2_cmd_2_question_mark
                0x1ff3a728       0x20 arch/arm/cpu/armv7/start.o
 .rel.u_boot_list_2_cmd_2_help
                0x1ff3a748       0x20 arch/arm/cpu/armv7/start.o
 .rel.u_boot_list_2_cmd_2_itest
                0x1ff3a768       0x20 arch/arm/cpu/armv7/start.o
 .rel.u_boot_list_2_cmd_2_loadb
                0x1ff3a788       0x20 arch/arm/cpu/armv7/start.o
 .rel.u_boot_list_2_cmd_2_loads
                0x1ff3a7a8       0x20 arch/arm/cpu/armv7/start.o
 .rel.u_boot_list_2_cmd_2_saves
                0x1ff3a7c8       0x20 arch/arm/cpu/armv7/start.o
 .rel.u_boot_list_2_cmd_2_loadx
                0x1ff3a7e8       0x20 arch/arm/cpu/armv7/start.o
 .rel.u_boot_list_2_cmd_2_loady
                0x1ff3a808       0x20 arch/arm/cpu/armv7/start.o
 .rel.u_boot_list_2_cmd_2_base
                0x1ff3a828       0x20 arch/arm/cpu/armv7/start.o
 .rel.u_boot_list_2_cmd_2_cmp
                0x1ff3a848       0x20 arch/arm/cpu/armv7/start.o
 .rel.u_boot_list_2_cmd_2_nm
                0x1ff3a868       0x20 arch/arm/cpu/armv7/start.o
 .rel.u_boot_list_2_cmd_2_loop
                0x1ff3a888       0x20 arch/arm/cpu/armv7/start.o
 .rel.u_boot_list_2_cmd_2_cp
                0x1ff3a8a8       0x20 arch/arm/cpu/armv7/start.o
 .rel.u_boot_list_2_cmd_2_mm
                0x1ff3a8c8       0x20 arch/arm/cpu/armv7/start.o
 .rel.u_boot_list_2_cmd_2_crc32
                0x1ff3a8e8       0x20 arch/arm/cpu/armv7/start.o
 .rel.u_boot_list_2_cmd_2_md
                0x1ff3a908       0x20 arch/arm/cpu/armv7/start.o
 .rel.u_boot_list_2_cmd_2_mw
                0x1ff3a928       0x20 arch/arm/cpu/armv7/start.o
 .rel.u_boot_list_2_cmd_2_sleep
                0x1ff3a948       0x20 arch/arm/cpu/armv7/start.o
 .rel.u_boot_list_2_cmd_2_mmcinfo
                0x1ff3a968       0x20 arch/arm/cpu/armv7/start.o
 .rel.u_boot_list_2_cmd_2_mmc
                0x1ff3a988       0x20 arch/arm/cpu/armv7/start.o
 .rel.u_boot_list_2_cmd_2_ping
                0x1ff3a9a8       0x20 arch/arm/cpu/armv7/start.o
 .rel.u_boot_list_2_cmd_2_dhcp
                0x1ff3a9c8       0x20 arch/arm/cpu/armv7/start.o
 .rel.u_boot_list_2_cmd_2_bootp
                0x1ff3a9e8       0x20 arch/arm/cpu/armv7/start.o
 .rel.u_boot_list_2_cmd_2_tftpboot
                0x1ff3aa08       0x20 arch/arm/cpu/armv7/start.o
 .rel.u_boot_list_2_cmd_2_nfs
                0x1ff3aa28       0x20 arch/arm/cpu/armv7/start.o
 .rel.u_boot_list_2_cmd_2_setenv
                0x1ff3aa48       0x20 arch/arm/cpu/armv7/start.o
 .rel.u_boot_list_2_cmd_2_askenv
                0x1ff3aa68       0x20 arch/arm/cpu/armv7/start.o
 .rel.u_boot_list_2_cmd_2_env
                0x1ff3aa88       0x20 arch/arm/cpu/armv7/start.o
 .rel.u_boot_list_2_cmd_2_saveenv
                0x1ff3aaa8       0x20 arch/arm/cpu/armv7/start.o
 .rel.data.cmd_env_sub
                0x1ff3aac8      0x140 arch/arm/cpu/armv7/start.o
 .rel.u_boot_list_2_cmd_2_printenv
                0x1ff3ac08       0x20 arch/arm/cpu/armv7/start.o
 .rel.u_boot_list_2_cmd_2_editenv
                0x1ff3ac28       0x20 arch/arm/cpu/armv7/start.o
 .rel.u_boot_list_2_cmd_2_run
                0x1ff3ac48       0x20 arch/arm/cpu/armv7/start.o
 .rel.u_boot_list_2_cmd_2_sf
                0x1ff3ac68       0x20 arch/arm/cpu/armv7/start.o
 .rel.u_boot_list_2_cmd_2_source
                0x1ff3ac88       0x20 arch/arm/cpu/armv7/start.o
 .rel.u_boot_list_2_cmd_2_sspi
                0x1ff3aca8       0x20 arch/arm/cpu/armv7/start.o
 .rel.u_boot_list_2_cmd_2_test
                0x1ff3acc8       0x20 arch/arm/cpu/armv7/start.o
 .rel.u_boot_list_2_cmd_2_true
                0x1ff3ace8       0x18 arch/arm/cpu/armv7/start.o
 .rel.u_boot_list_2_cmd_2_false
                0x1ff3ad00       0x18 arch/arm/cpu/armv7/start.o
 .rel.u_boot_list_2_cmd_2_version
                0x1ff3ad18       0x20 arch/arm/cpu/armv7/start.o
 .rel.u_boot_list_2_cmd_2_imxtract
                0x1ff3ad38       0x20 arch/arm/cpu/armv7/start.o
 .rel.u_boot_list_2_env_clbk_2_console
                0x1ff3ad58       0x10 arch/arm/cpu/armv7/start.o
 .rel.data.av_  0x1ff3ad68      0x800 arch/arm/cpu/armv7/start.o
 .rel.u_boot_list_2_env_clbk_2_callbacks
                0x1ff3b568       0x10 arch/arm/cpu/armv7/start.o
 .rel.data.env_htab
                0x1ff3b578        0x8 arch/arm/cpu/armv7/start.o
 .rel.u_boot_list_2_env_clbk_2_flags
                0x1ff3b580       0x10 arch/arm/cpu/armv7/start.o
 .rel.data.env_name_spec
                0x1ff3b590        0x8 arch/arm/cpu/armv7/start.o
 .rel.data.of_busses
                0x00000000        0x0 arch/arm/cpu/armv7/start.o
 .rel.data.hash_algo
                0x00000000        0x0 arch/arm/cpu/armv7/start.o
 .rel.data.reserved_list
                0x1ff3b598       0x58 arch/arm/cpu/armv7/start.o
 .rel.u_boot_list_2_cmd_2_showvar
                0x1ff3b5f0       0x20 arch/arm/cpu/armv7/start.o
 .rel.u_boot_list_2_env_clbk_2_loadaddr
                0x1ff3b610       0x10 arch/arm/cpu/armv7/start.o
 .rel.data.stdio_names
                0x1ff3b620       0x18 arch/arm/cpu/armv7/start.o
 .rel.text.get_dev
                0x1ff3b638        0x8 arch/arm/cpu/armv7/start.o
 .rel.text.dev_print
                0x1ff3b640      0x110 arch/arm/cpu/armv7/start.o
 .rel.text.print_part
                0x1ff3b750       0xb0 arch/arm/cpu/armv7/start.o
 .rel.text.get_device
                0x1ff3b800       0x10 arch/arm/cpu/armv7/start.o
 .rel.text.get_device_and_partition
                0x1ff3b810       0x70 arch/arm/cpu/armv7/start.o
 .rel.text.test_block_type
                0x1ff3b880       0x10 arch/arm/cpu/armv7/start.o
 .rel.text.print_partition_extended
                0x1ff3b890       0x30 arch/arm/cpu/armv7/start.o
 .rel.text.get_partition_info_extended.constprop.2
                0x1ff3b8c0       0x80 arch/arm/cpu/armv7/start.o
 .rel.text.print_part_dos
                0x1ff3b940        0x8 arch/arm/cpu/armv7/start.o
 .rel.rodata.block_drvr
                0x1ff3b948       0x10 arch/arm/cpu/armv7/start.o
 .rel.text.fpga_no_sup
                0x1ff3b958       0x18 arch/arm/cpu/armv7/start.o
 .rel.text.fpga_get_desc
                0x1ff3b970       0x10 arch/arm/cpu/armv7/start.o
 .rel.text.fpga_dev_info
                0x1ff3b980       0x30 arch/arm/cpu/armv7/start.o
 .rel.text.fpga_validate
                0x1ff3b9b0       0x10 arch/arm/cpu/armv7/start.o
 .rel.text.fpga_init
                0x1ff3b9c0       0x10 arch/arm/cpu/armv7/start.o
 .rel.text.fpga_count
                0x1ff3b9d0        0x8 arch/arm/cpu/armv7/start.o
 .rel.text.fpga_add
                0x1ff3b9d8       0x38 arch/arm/cpu/armv7/start.o
 .rel.text.fpga_loadbitstream
                0x1ff3ba10        0x8 arch/arm/cpu/armv7/start.o
 .rel.text.fpga_load
                0x1ff3ba18       0x28 arch/arm/cpu/armv7/start.o
 .rel.text.fpga_dump
                0x1ff3ba40       0x28 arch/arm/cpu/armv7/start.o
 .rel.text.fpga_info
                0x1ff3ba68       0x18 arch/arm/cpu/armv7/start.o
 .rel.text.zynq_load
                0x00000000        0x0 arch/arm/cpu/armv7/start.o
 .rel.text.input_send_keycodes
                0x00000000        0x0 arch/arm/cpu/armv7/start.o
 .rel.text.input_init
                0x00000000        0x0 arch/arm/cpu/armv7/start.o
 .rel.text.input_stdio_register
                0x00000000        0x0 arch/arm/cpu/armv7/start.o
 .rel.rodata.kbd_to_ansi364
                0x00000000        0x0 arch/arm/cpu/armv7/start.o
 .rel.text.mmc_set_capacity
                0x1ff3ba80       0x40 arch/arm/cpu/armv7/start.o
 .rel.text.mmc_send_status
                0x1ff3bac0       0x10 arch/arm/cpu/armv7/start.o
 .rel.text.find_mmc_device
                0x1ff3bad0       0x10 arch/arm/cpu/armv7/start.o
 .rel.text.mmc_bread
                0x1ff3bae0       0x10 arch/arm/cpu/armv7/start.o
 .rel.text.mmc_startup
                0x1ff3baf0       0xa0 arch/arm/cpu/armv7/start.o
 .rel.text.mmc_register
                0x1ff3bb90       0x28 arch/arm/cpu/armv7/start.o
 .rel.text.mmc_start_init
                0x1ff3bbb8       0x10 arch/arm/cpu/armv7/start.o
 .rel.text.print_mmc_devices
                0x1ff3bbc8       0x20 arch/arm/cpu/armv7/start.o
 .rel.text.get_mmc_num
                0x1ff3bbe8        0x8 arch/arm/cpu/armv7/start.o
 .rel.text.mmc_initialize
                0x1ff3bbf0       0x10 arch/arm/cpu/armv7/start.o
 .rel.text.mmc_berase
                0x1ff3bc00       0x10 arch/arm/cpu/armv7/start.o
 .rel.text.mmc_bwrite
                0x1ff3bc10       0x18 arch/arm/cpu/armv7/start.o
 .rel.text.sdhci_set_ios
                0x1ff3bc28       0x10 arch/arm/cpu/armv7/start.o
 .rel.text.sdhci_init
                0x1ff3bc38       0x18 arch/arm/cpu/armv7/start.o
 .rel.text.sdhci_reset
                0x1ff3bc50       0x10 arch/arm/cpu/armv7/start.o
 .rel.text.sdhci_send_command
                0x1ff3bc60       0x48 arch/arm/cpu/armv7/start.o
 .rel.text.add_sdhci
                0x1ff3bca8       0x38 arch/arm/cpu/armv7/start.o
 .rel.text.zynq_sdhci_init
                0x1ff3bce0       0x10 arch/arm/cpu/armv7/start.o
 .rel.text.spi_flash_set_qeb
                0x1ff3bcf0        0x8 arch/arm/cpu/armv7/start.o
 .rel.text.spi_flash_probe
                0x1ff3bcf8       0x78 arch/arm/cpu/armv7/start.o
 .rel.rodata.spi_flash_params_table
                0x1ff3bd70      0x1a0 arch/arm/cpu/armv7/start.o
 .rel.text.nc_wait_arp_handler
                0x1ff3bf10        0x8 arch/arm/cpu/armv7/start.o
 .rel.text.nc_handler
                0x1ff3bf18       0x10 arch/arm/cpu/armv7/start.o
 .rel.text.nc_timeout
                0x1ff3bf28        0x8 arch/arm/cpu/armv7/start.o
 .rel.text.is_broadcast
                0x1ff3bf30       0x28 arch/arm/cpu/armv7/start.o
 .rel.text.nc_getc
                0x1ff3bf58       0x28 arch/arm/cpu/armv7/start.o
 .rel.text.nc_send_packet
                0x1ff3bf80       0x58 arch/arm/cpu/armv7/start.o
 .rel.text.nc_putc
                0x1ff3bfd8        0x8 arch/arm/cpu/armv7/start.o
 .rel.text.refresh_settings_from_env
                0x1ff3bfe0       0x38 arch/arm/cpu/armv7/start.o
 .rel.text.nc_start
                0x1ff3c018       0x10 arch/arm/cpu/armv7/start.o
 .rel.text.nc_tstc
                0x1ff3c028       0x20 arch/arm/cpu/armv7/start.o
 .rel.text.nc_puts
                0x1ff3c048        0x8 arch/arm/cpu/armv7/start.o
 .rel.text.NcStart
                0x1ff3c050       0x60 arch/arm/cpu/armv7/start.o
 .rel.text.nc_input_packet
                0x1ff3c0b0       0x28 arch/arm/cpu/armv7/start.o
 .rel.text.drv_nc_init
                0x1ff3c0d8       0x30 arch/arm/cpu/armv7/start.o
 .rel.text.phy_setup_op
                0x1ff3c108       0x10 arch/arm/cpu/armv7/start.o
 .rel.text.zynq_gem_miiphy_write
                0x1ff3c118        0x8 arch/arm/cpu/armv7/start.o
 .rel.text.zynq_gem_recv
                0x1ff3c120        0x8 arch/arm/cpu/armv7/start.o
 .rel.text.zynq_gem_send
                0x1ff3c128       0x10 arch/arm/cpu/armv7/start.o
 .rel.text.zynq_gem_miiphyread
                0x1ff3c138        0x8 arch/arm/cpu/armv7/start.o
 .rel.text.zynq_gem_init
                0x1ff3c140       0x10 arch/arm/cpu/armv7/start.o
 .rel.text.zynq_gem_initialize
                0x1ff3c150       0x40 arch/arm/cpu/armv7/start.o
 .rel.text.m88e1xxx_parse_status
                0x1ff3c190       0x18 arch/arm/cpu/armv7/start.o
 .rel.text.m88e1111s_config
                0x1ff3c1a8       0x10 arch/arm/cpu/armv7/start.o
 .rel.text.phy_marvell_init
                0x1ff3c1b8       0x48 arch/arm/cpu/armv7/start.o
 .rel.text.phy_device_create
                0x1ff3c200       0x18 arch/arm/cpu/armv7/start.o
 .rel.text.get_phy_device_by_mask
                0x1ff3c218        0x8 arch/arm/cpu/armv7/start.o
 .rel.text.genphy_update_link
                0x1ff3c220       0x28 arch/arm/cpu/armv7/start.o
 .rel.text.phy_register
                0x1ff3c248        0x8 arch/arm/cpu/armv7/start.o
 .rel.text.phy_reset
                0x1ff3c250        0x8 arch/arm/cpu/armv7/start.o
 .rel.text.phy_connect_dev
                0x1ff3c258        0x8 arch/arm/cpu/armv7/start.o
 .rel.text.phy_connect
                0x1ff3c260        0x8 arch/arm/cpu/armv7/start.o
 .rel.data.M88E1111S_driver
                0x1ff3c268       0x20 arch/arm/cpu/armv7/start.o
 .rel.data.M88E1310_driver
                0x1ff3c288       0x20 arch/arm/cpu/armv7/start.o
 .rel.data.M88E1011S_driver
                0x1ff3c2a8       0x20 arch/arm/cpu/armv7/start.o
 .rel.data.M88E1118_driver
                0x1ff3c2c8       0x20 arch/arm/cpu/armv7/start.o
 .rel.data.M88E1518_driver
                0x1ff3c2e8       0x20 arch/arm/cpu/armv7/start.o
 .rel.data.M88E1145_driver
                0x1ff3c308       0x20 arch/arm/cpu/armv7/start.o
 .rel.data.M88E1149S_driver
                0x1ff3c328       0x20 arch/arm/cpu/armv7/start.o
 .rel.data.M88E1121R_driver
                0x1ff3c348       0x20 arch/arm/cpu/armv7/start.o
 .rel.data.M88E1118R_driver
                0x1ff3c368       0x20 arch/arm/cpu/armv7/start.o
 .rel.data.phy_drivers
                0x1ff3c388       0x10 arch/arm/cpu/armv7/start.o
 .rel.data.genphy_driver
                0x1ff3c398       0x20 arch/arm/cpu/armv7/start.o
 .rel.text.get_current
                0x1ff3c3b8       0x10 arch/arm/cpu/armv7/start.o
 .rel.text.serial_register
                0x1ff3c3c8        0x8 arch/arm/cpu/armv7/start.o
 .rel.text.serial_stdio_init
                0x1ff3c3d0        0x8 arch/arm/cpu/armv7/start.o
 .rel.text.serial_assign
                0x1ff3c3d8       0x10 arch/arm/cpu/armv7/start.o
 .rel.text.serial_reinit_all
                0x00000000        0x0 arch/arm/cpu/armv7/start.o
 .rel.text.on_baudrate
                0x1ff3c3e8       0x20 arch/arm/cpu/armv7/start.o
 .rel.text.uart_zynq_serial_putc
                0x1ff3c408        0x8 arch/arm/cpu/armv7/start.o
 .rel.text.uart_zynq_serial_setbrg
                0x1ff3c410       0x10 arch/arm/cpu/armv7/start.o
 .rel.text.default_serial_console
                0x1ff3c420        0x8 arch/arm/cpu/armv7/start.o
 .rel.text.zynq_serial_initalize
                0x1ff3c428       0x10 arch/arm/cpu/armv7/start.o
 .rel.u_boot_list_2_env_clbk_2_baudrate
                0x1ff3c438       0x10 arch/arm/cpu/armv7/start.o
 .rel.data.uart_zynq_serial0_device
                0x1ff3c448       0x30 arch/arm/cpu/armv7/start.o
 .rel.data.uart_zynq_serial1_device
                0x1ff3c478       0x30 arch/arm/cpu/armv7/start.o
 .rel.text.spi_set_wordlen
                0x00000000        0x0 arch/arm/cpu/armv7/start.o
 .rel.text.zynq_qspi_setup_transfer
                0x1ff3c4a8       0x10 arch/arm/cpu/armv7/start.o
 .rel.text.zynq_qspi_copy_write_data
                0x1ff3c4b8       0x20 arch/arm/cpu/armv7/start.o
 .rel.text.zynq_qspi_fill_tx_fifo
                0x1ff3c4d8        0x8 arch/arm/cpu/armv7/start.o
 .rel.text.zynq_qspi_copy_read_data
                0x1ff3c4e0       0x20 arch/arm/cpu/armv7/start.o
 .rel.text.spi_setup_slave
                0x1ff3c500       0x30 arch/arm/cpu/armv7/start.o
 .rel.text.spi_xfer
                0x1ff3c530       0x20 arch/arm/cpu/armv7/start.o
 .rel.text.ext4fs_set_blk_dev
                0x1ff3c550       0x18 arch/arm/cpu/armv7/start.o
 .rel.text.ext4fs_devread
                0x1ff3c568       0x38 arch/arm/cpu/armv7/start.o
 .rel.text.read_allocated_block
                0x1ff3c5a0       0xb8 arch/arm/cpu/armv7/start.o
 .rel.text.ext4fs_close
                0x1ff3c658       0x58 arch/arm/cpu/armv7/start.o
 .rel.text.ext4fs_iterate_dir
                0x1ff3c6b0       0x28 arch/arm/cpu/armv7/start.o
 .rel.text.ext4fs_find_file1
                0x1ff3c6d8       0x10 arch/arm/cpu/armv7/start.o
 .rel.text.ext4fs_find_file
                0x1ff3c6e8        0x8 arch/arm/cpu/armv7/start.o
 .rel.text.ext4fs_open
                0x1ff3c6f0       0x10 arch/arm/cpu/armv7/start.o
 .rel.text.ext4fs_mount
                0x1ff3c700       0x10 arch/arm/cpu/armv7/start.o
 .rel.text.get_fs
                0x1ff3c710        0x8 arch/arm/cpu/armv7/start.o
 .rel.text.ext4fs_free_node
                0x1ff3c718        0x8 arch/arm/cpu/armv7/start.o
 .rel.text.ext4fs_read_file
                0x1ff3c720        0x8 arch/arm/cpu/armv7/start.o
 .rel.text.ext4fs_ls
                0x1ff3c728       0x10 arch/arm/cpu/armv7/start.o
 .rel.text.ext4fs_read
                0x1ff3c738       0x10 arch/arm/cpu/armv7/start.o
 .rel.text.ext4_read_file
                0x1ff3c748       0x10 arch/arm/cpu/armv7/start.o
 .rel.text.downcase
                0x1ff3c758        0x8 arch/arm/cpu/armv7/start.o
 .rel.text.disk_read
                0x1ff3c760       0x10 arch/arm/cpu/armv7/start.o
 .rel.text.check_overflow
                0x1ff3c770       0x10 arch/arm/cpu/armv7/start.o
 .rel.text.disk_write
                0x1ff3c780       0x20 arch/arm/cpu/armv7/start.o
 .rel.text.flush_fat_buffer
                0x1ff3c7a0        0x8 arch/arm/cpu/armv7/start.o
 .rel.text.get_cluster
                0x1ff3c7a8        0x8 arch/arm/cpu/armv7/start.o
 .rel.text.read_bootsectandvi
                0x1ff3c7b0       0x20 arch/arm/cpu/armv7/start.o
 .rel.text.set_name
                0x1ff3c7d0        0x8 arch/arm/cpu/armv7/start.o
 .rel.text.get_vfatname
                0x1ff3c7d8       0x10 arch/arm/cpu/armv7/start.o
 .rel.text.flush_dir_table.constprop.7
                0x1ff3c7e8       0x20 arch/arm/cpu/armv7/start.o
 .rel.text.do_fat_write
                0x1ff3c808       0x80 arch/arm/cpu/armv7/start.o
 .rel.text.fat_set_blk_dev
                0x1ff3c888       0x28 arch/arm/cpu/armv7/start.o
 .rel.text.fat_register_device
                0x00000000        0x0 arch/arm/cpu/armv7/start.o
 .rel.text.do_fat_read_at
                0x1ff3c8b0       0x58 arch/arm/cpu/armv7/start.o
 .rel.text.file_fat_detectfs
                0x1ff3c908       0xb0 arch/arm/cpu/armv7/start.o
 .rel.text.file_fat_read_at
                0x1ff3c9b8        0x8 arch/arm/cpu/armv7/start.o
 .rel.text.fat_read_file
                0x1ff3c9c0        0x8 arch/arm/cpu/armv7/start.o
 .rel.text.file_fat_write
                0x1ff3c9c8        0x8 arch/arm/cpu/armv7/start.o
 .rel.text.file_getfsname
                0x00000000        0x0 arch/arm/cpu/armv7/start.o
 .rel.text.file_cd
                0x00000000        0x0 arch/arm/cpu/armv7/start.o
 .rel.text.file_detectfs
                0x00000000        0x0 arch/arm/cpu/armv7/start.o
 .rel.text.file_ls
                0x00000000        0x0 arch/arm/cpu/armv7/start.o
 .rel.text.file_read
                0x00000000        0x0 arch/arm/cpu/armv7/start.o
 .rel.text.fs_probe_unsupported
                0x1ff3c9d0        0x8 arch/arm/cpu/armv7/start.o
 .rel.text.fs_get_info
                0x1ff3c9d8        0x8 arch/arm/cpu/armv7/start.o
 .rel.text.fs_close
                0x1ff3c9e0        0x8 arch/arm/cpu/armv7/start.o
 .rel.text.fs_set_blk_dev
                0x1ff3c9e8       0x20 arch/arm/cpu/armv7/start.o
 .rel.text.fs_ls
                0x1ff3ca08        0x8 arch/arm/cpu/armv7/start.o
 .rel.text.fs_read
                0x1ff3ca10       0x10 arch/arm/cpu/armv7/start.o
 .rel.text.fs_write
                0x00000000        0x0 arch/arm/cpu/armv7/start.o
 .rel.text.do_load
                0x1ff3ca20       0x48 arch/arm/cpu/armv7/start.o
 .rel.text.do_ls
                0x1ff3ca68        0x8 arch/arm/cpu/armv7/start.o
 .rel.text.do_save
                0x00000000        0x0 arch/arm/cpu/armv7/start.o
 .rel.rodata.filesystems
                0x00000000        0x0 arch/arm/cpu/armv7/start.o
 .rel.data.fstypes
                0x1ff3ca70       0x68 arch/arm/cpu/armv7/start.o
 .rel.text.cyg_crc16
                0x1ff3cad8        0x8 arch/arm/cpu/armv7/start.o
 .rel.text.crc32_no_comp
                0x1ff3cae0        0x8 arch/arm/cpu/armv7/start.o
 .rel.text.crc7
                0x00000000        0x0 arch/arm/cpu/armv7/start.o
 .rel.text.display_options
                0x00000000        0x0 arch/arm/cpu/armv7/start.o
 .rel.text.print_size
                0x1ff3cae8       0x28 arch/arm/cpu/armv7/start.o
 .rel.text.print_buffer
                0x1ff3cb10       0x28 arch/arm/cpu/armv7/start.o
 .rel.text.zunzip
                0x1ff3cb38       0x28 arch/arm/cpu/armv7/start.o
 .rel.text.gunzip
                0x1ff3cb60       0x10 arch/arm/cpu/armv7/start.o
 .rel.text.hang
                0x1ff3cb70        0x8 arch/arm/cpu/armv7/start.o
 .rel.text.match_string.isra.3
                0x1ff3cb78        0x8 arch/arm/cpu/armv7/start.o
 .rel.text.hcreate_r
                0x1ff3cb80        0x8 arch/arm/cpu/armv7/start.o
 .rel.text.hdestroy_r
                0x1ff3cb88        0x8 arch/arm/cpu/armv7/start.o
 .rel.text.hmatch_r
                0x00000000        0x0 arch/arm/cpu/armv7/start.o
 .rel.text.hsearch_r
                0x1ff3cb90        0x8 arch/arm/cpu/armv7/start.o
 .rel.text.hdelete_r
                0x1ff3cb98        0x8 arch/arm/cpu/armv7/start.o
 .rel.text.hexport_r
                0x1ff3cba0       0x18 arch/arm/cpu/armv7/start.o
 .rel.text.himport_r
                0x1ff3cbb8       0x20 arch/arm/cpu/armv7/start.o
 .rel.text.skip_spaces
                0x1ff3cbd8        0x8 arch/arm/cpu/armv7/start.o
 .rel.text.strim
                0x1ff3cbe0        0x8 arch/arm/cpu/armv7/start.o
 .rel.text.lmb_alloc_base
                0x1ff3cbe8        0x8 arch/arm/cpu/armv7/start.o
 .rel.text.sha1_finish
                0x1ff3cbf0        0x8 arch/arm/cpu/armv7/start.o
 .rel.text.strncasecmp
                0x00000000        0x0 arch/arm/cpu/armv7/start.o
 .rel.text.strtok
                0x00000000        0x0 arch/arm/cpu/armv7/start.o
 .rel.text.strmhz
                0x00000000        0x0 arch/arm/cpu/armv7/start.o
 .rel.text.string.isra.0
                0x1ff3cbf8        0x8 arch/arm/cpu/armv7/start.o
 .rel.text.number.isra.4
                0x1ff3cc00        0x8 arch/arm/cpu/armv7/start.o
 .rel.text.vsnprintf_internal.isra.6
                0x1ff3cc08       0x10 arch/arm/cpu/armv7/start.o
 .rel.text.simple_strtoul
                0x1ff3cc18        0x8 arch/arm/cpu/armv7/start.o
 .rel.text.simple_strtoull
                0x1ff3cc20        0x8 arch/arm/cpu/armv7/start.o
 .rel.text.__assert_fail
                0x00000000        0x0 arch/arm/cpu/armv7/start.o
 .rel.text.simple_itoa
                0x1ff3cc28        0x8 arch/arm/cpu/armv7/start.o
 .rel.text.print_grouped_ull
                0x00000000        0x0 arch/arm/cpu/armv7/start.o
 .rel.text.inflate_fast
                0x1ff3cc30       0x18 arch/arm/cpu/armv7/start.o
 .rel.text.inflate_table
                0x1ff3cc48       0x20 arch/arm/cpu/armv7/start.o
 .rel.text.inflateInit2_
                0x1ff3cc68       0x10 arch/arm/cpu/armv7/start.o
 .rel.text.inflate
                0x1ff3cc78      0x188 arch/arm/cpu/armv7/start.o
 .rel.rodata.z_errmsg
                0x00000000        0x0 arch/arm/cpu/armv7/start.o
 .rel.text.fdt_next_tag
                0x1ff3ce00       0x48 arch/arm/cpu/armv7/start.o
 .rel.text.fdt_create_empty_tree
                0x00000000        0x0 arch/arm/cpu/armv7/start.o
 .rel.text.fdt_get_phandle
                0x00000000        0x0 arch/arm/cpu/armv7/start.o
 .rel.text.fdt_get_alias_namelen
                0x1ff3ce48        0x8 arch/arm/cpu/armv7/start.o
 .rel.text.fdt_node_check_compatible
                0x00000000        0x0 arch/arm/cpu/armv7/start.o
 .rel.text.fdt_strerror
                0x1ff3ce50       0x20 arch/arm/cpu/armv7/start.o
 .rel.text.fdt_find_regions
                0x00000000        0x0 arch/arm/cpu/armv7/start.o
 .rel.rodata.fdt_errtable
                0x1ff3ce70       0x58 arch/arm/cpu/armv7/start.o
 .rel.text.ArpInit
                0x1ff3cec8       0x30 arch/arm/cpu/armv7/start.o
 .rel.text.arp_raw_request
                0x1ff3cef8       0x18 arch/arm/cpu/armv7/start.o
 .rel.text.ArpRequest
                0x1ff3cf10       0x38 arch/arm/cpu/armv7/start.o
 .rel.text.ArpTimeoutCheck
                0x1ff3cf48       0x20 arch/arm/cpu/armv7/start.o
 .rel.text.ArpReceive
                0x1ff3cf68       0x40 arch/arm/cpu/armv7/start.o
 .rel.text.DhcpOptionsProcess
                0x1ff3cfa8       0x68 arch/arm/cpu/armv7/start.o
 .rel.text.DhcpHandler
                0x1ff3d010       0x60 arch/arm/cpu/armv7/start.o
 .rel.text.BootpRequest
                0x1ff3d070       0x50 arch/arm/cpu/armv7/start.o
 .rel.text.BootpTimeout
                0x1ff3d0c0       0x20 arch/arm/cpu/armv7/start.o
 .rel.text.eth_current_changed
                0x1ff3d0e0       0x10 arch/arm/cpu/armv7/start.o
 .rel.text.eth_setenv_enetaddr
                0x1ff3d0f0        0x8 arch/arm/cpu/armv7/start.o
 .rel.text.eth_getenv_enetaddr_by_index
                0x1ff3d0f8       0x10 arch/arm/cpu/armv7/start.o
 .rel.text.eth_get_dev_by_name
                0x00000000        0x0 arch/arm/cpu/armv7/start.o
 .rel.text.eth_get_dev_by_index
                0x1ff3d108        0x8 arch/arm/cpu/armv7/start.o
 .rel.text.eth_get_dev_index
                0x1ff3d110        0x8 arch/arm/cpu/armv7/start.o
 .rel.text.eth_write_hwaddr
                0x1ff3d118       0x48 arch/arm/cpu/armv7/start.o
 .rel.text.eth_register
                0x1ff3d160       0x18 arch/arm/cpu/armv7/start.o
 .rel.text.eth_unregister
                0x1ff3d178       0x10 arch/arm/cpu/armv7/start.o
 .rel.text.eth_initialize
                0x1ff3d188       0x90 arch/arm/cpu/armv7/start.o
 .rel.text.eth_halt
                0x1ff3d218        0x8 arch/arm/cpu/armv7/start.o
 .rel.text.eth_send
                0x1ff3d220        0x8 arch/arm/cpu/armv7/start.o
 .rel.text.eth_rx
                0x1ff3d228        0x8 arch/arm/cpu/armv7/start.o
 .rel.text.eth_try_another
                0x1ff3d230       0x28 arch/arm/cpu/armv7/start.o
 .rel.text.eth_init
                0x1ff3d258       0x20 arch/arm/cpu/armv7/start.o
 .rel.text.eth_set_current
                0x1ff3d278       0x20 arch/arm/cpu/armv7/start.o
 .rel.text.eth_get_name
                0x1ff3d298       0x10 arch/arm/cpu/armv7/start.o
 .rel.text.startAgainTimeout
                0x1ff3d2a8        0x8 arch/arm/cpu/armv7/start.o
 .rel.text.net_clear_handlers
                0x1ff3d2b0       0x20 arch/arm/cpu/armv7/start.o
 .rel.text.net_auto_load
                0x1ff3d2d0       0x18 arch/arm/cpu/armv7/start.o
 .rel.text.NetStartAgain
                0x1ff3d2e8       0x78 arch/arm/cpu/armv7/start.o
 .rel.text.net_get_udp_handler
                0x00000000        0x0 arch/arm/cpu/armv7/start.o
 .rel.text.net_set_udp_handler
                0x1ff3d360       0x10 arch/arm/cpu/armv7/start.o
 .rel.text.net_get_arp_handler
                0x1ff3d370        0x8 arch/arm/cpu/armv7/start.o
 .rel.text.net_set_arp_handler
                0x1ff3d378       0x10 arch/arm/cpu/armv7/start.o
 .rel.text.NetSetTimeout
                0x1ff3d388       0x18 arch/arm/cpu/armv7/start.o
 .rel.text.NetReceive
                0x1ff3d3a0       0x38 arch/arm/cpu/armv7/start.o
 .rel.text.NetEthHdrSize
                0x1ff3d3d8        0x8 arch/arm/cpu/armv7/start.o
 .rel.text.NetSetEther
                0x1ff3d3e0       0x10 arch/arm/cpu/armv7/start.o
 .rel.text.net_update_ether
                0x1ff3d3f0        0x8 arch/arm/cpu/armv7/start.o
 .rel.text.net_set_ip_header
                0x1ff3d3f8        0x8 arch/arm/cpu/armv7/start.o
 .rel.text.net_set_udp_header
                0x1ff3d400        0x8 arch/arm/cpu/armv7/start.o
 .rel.text.NetSendUDPPacket
                0x1ff3d408       0x40 arch/arm/cpu/armv7/start.o
 .rel.text.on_bootfile
                0x1ff3d448        0x8 arch/arm/cpu/armv7/start.o
 .rel.text.ip_to_string
                0x1ff3d450        0x8 arch/arm/cpu/armv7/start.o
 .rel.text.VLAN_to_string
                0x00000000        0x0 arch/arm/cpu/armv7/start.o
 .rel.text.NetInitLoop
                0x1ff3d458       0x78 arch/arm/cpu/armv7/start.o
 .rel.text.net_init
                0x1ff3d4d0       0x20 arch/arm/cpu/armv7/start.o
 .rel.text.NetLoop
                0x1ff3d4f0      0x1a0 arch/arm/cpu/armv7/start.o
 .rel.text.rpc_lookup_reply
                0x1ff3d690       0x18 arch/arm/cpu/armv7/start.o
 .rel.text.nfs_mount_reply
                0x1ff3d6a8       0x18 arch/arm/cpu/armv7/start.o
 .rel.text.nfs_umountall_reply
                0x1ff3d6c0       0x18 arch/arm/cpu/armv7/start.o
 .rel.text.nfs_lookup_reply
                0x1ff3d6d8       0x10 arch/arm/cpu/armv7/start.o
 .rel.text.nfs_readlink_reply
                0x1ff3d6e8       0x18 arch/arm/cpu/armv7/start.o
 .rel.text.rpc_add_credentials
                0x1ff3d700        0x8 arch/arm/cpu/armv7/start.o
 .rel.text.rpc_req
                0x1ff3d708       0x38 arch/arm/cpu/armv7/start.o
 .rel.text.nfs_umountall_req
                0x1ff3d740       0x10 arch/arm/cpu/armv7/start.o
 .rel.text.nfs_lookup_req
                0x1ff3d750        0x8 arch/arm/cpu/armv7/start.o
 .rel.text.nfs_read_req
                0x1ff3d758        0x8 arch/arm/cpu/armv7/start.o
 .rel.text.nfs_readlink_req
                0x1ff3d760        0x8 arch/arm/cpu/armv7/start.o
 .rel.text.nfs_read_reply.isra.0
                0x1ff3d768       0x28 arch/arm/cpu/armv7/start.o
 .rel.text.NfsSend
                0x1ff3d790       0x60 arch/arm/cpu/armv7/start.o
 .rel.text.NfsHandler
                0x1ff3d7f0       0xa8 arch/arm/cpu/armv7/start.o
 .rel.text.NfsTimeout
                0x1ff3d898       0x20 arch/arm/cpu/armv7/start.o
 .rel.text.NfsStart
                0x1ff3d8b8       0xe0 arch/arm/cpu/armv7/start.o
 .rel.text.ping_timeout
                0x1ff3d998        0x8 arch/arm/cpu/armv7/start.o
 .rel.text.ping_start
                0x1ff3d9a0       0x58 arch/arm/cpu/armv7/start.o
 .rel.text.ping_receive
                0x1ff3d9f8       0x18 arch/arm/cpu/armv7/start.o
 .rel.text.TftpSend
                0x1ff3da10       0xb8 arch/arm/cpu/armv7/start.o
 .rel.text.TftpHandler
                0x1ff3dac8       0xc0 arch/arm/cpu/armv7/start.o
 .rel.text.TftpTimeout
                0x1ff3db88       0x40 arch/arm/cpu/armv7/start.o
 .rel.text.TftpStart
                0x1ff3dbc8      0x130 arch/arm/cpu/armv7/start.o
 .rel.u_boot_list_2_env_clbk_2_bootfile
                0x1ff3dcf8       0x10 arch/arm/cpu/armv7/start.o
 .rel.text.raise
                0x1ff3dd08        0x8 arch/arm/cpu/armv7/start.o

.rel_dyn_end    0x1ff3dd10        0x0
 *(.__rel_dyn_end)
 .__rel_dyn_end
                0x1ff3dd10        0x0 arch/arm/lib/built-in.o
                0x1ff3dd10                _end = .
                0x1ff3e000                . = ALIGN (0x1000)

.mmutable
 *(.mmutable)

.bss_start      0x1ff37688        0x0
 *(.__bss_start)
 .__bss_start   0x1ff37688        0x0 arch/arm/lib/built-in.o
                0x1ff37688                __bss_start
                0x1ff37688                __bss_base = .

.bss            0x1ff37688    0x3f564
 *(.bss*)
 .bss.clks      0x1ff37688      0x540 arch/arm/cpu/armv7/zynq/built-in.o
 .bss.monitor_flash_len
                0x1ff37bc8        0x4 arch/arm/lib/built-in.o
                0x1ff37bc8                monitor_flash_len
 .bss.fpga      0x1ff37bcc       0x18 board/xilinx/zynq/built-in.o
                0x1ff37bcc                fpga
 .bss.images    0x1ff37be4      0x158 common/built-in.o
                0x1ff37be4                images
 .bss.data.6867
                0x1ff37d3c      0x400 common/built-in.o
 .bss.working_fdt
                0x1ff3813c        0x4 common/built-in.o
                0x1ff3813c                working_fdt
 .bss.send_parms
                0x1ff38140       0x14 common/built-in.o
 .bss.os_data_addr_saved
                0x1ff38154        0x4 common/built-in.o
 .bss.his_pad_char
                0x1ff38158        0x1 common/built-in.o
 .bss.a_b       0x1ff38159       0x18 common/built-in.o
 *fill*         0x1ff38171        0x3 
 .bss.os_data_char
                0x1ff38174        0x4 common/built-in.o
 .bss.os_data_state
                0x1ff38178        0x4 common/built-in.o
 .bss.k_data_escape
                0x1ff3817c        0x4 common/built-in.o
 .bss.os_data_state_saved
                0x1ff38180        0x4 common/built-in.o
 .bss.os_data_addr
                0x1ff38184        0x4 common/built-in.o
 .bss.send_ptr  0x1ff38188        0x4 common/built-in.o
 .bss.his_pad_count
                0x1ff3818c        0x4 common/built-in.o
 .bss.bin_start_address
                0x1ff38190        0x4 common/built-in.o
 .bss.his_quote
                0x1ff38194        0x1 common/built-in.o
 *fill*         0x1ff38195        0x3 
 .bss.os_data_init
                0x1ff38198        0x4 common/built-in.o
 .bss.his_eol   0x1ff3819c        0x1 common/built-in.o
 *fill*         0x1ff3819d        0x3 
 .bss.k_data_escape_saved
                0x1ff381a0        0x4 common/built-in.o
 .bss.dp_last_addr
                0x1ff381a4        0x4 common/built-in.o
 .bss.base_address
                0x1ff381a8        0x4 common/built-in.o
 .bss.mm_last_size
                0x1ff381ac        0x4 common/built-in.o
 .bss.mm_last_addr
                0x1ff381b0        0x4 common/built-in.o
 .bss.dp_last_size
                0x1ff381b4        0x4 common/built-in.o
 .bss.flash     0x1ff381b8        0x4 common/built-in.o
 .bss.bus       0x1ff381bc        0x4 common/built-in.o
 .bss.cs        0x1ff381c0        0x4 common/built-in.o
 .bss.bitlen    0x1ff381c4        0x4 common/built-in.o
 .bss.dout      0x1ff381c8       0x20 common/built-in.o
 .bss.din       0x1ff381e8       0x20 common/built-in.o
 .bss.mode      0x1ff38208        0x4 common/built-in.o
 .bss.ctrlc_was_pressed
                0x1ff3820c        0x4 common/built-in.o
 .bss.ctrlc_disabled
                0x1ff38210        0x4 common/built-in.o
 .bss.max_total_mem
                0x1ff38214        0x4 common/built-in.o
 .bss.mem_malloc_brk
                0x1ff38218        0x4 common/built-in.o
                0x1ff38218                mem_malloc_brk
 .bss.max_sbrked_mem
                0x1ff3821c        0x4 common/built-in.o
 .bss.current_mallinfo
                0x1ff38220       0x28 common/built-in.o
 .bss.mem_malloc_end
                0x1ff38248        0x4 common/built-in.o
                0x1ff38248                mem_malloc_end
 .bss.top_pad   0x1ff3824c        0x4 common/built-in.o
 .bss.mem_malloc_start
                0x1ff38250        0x4 common/built-in.o
                0x1ff38250                mem_malloc_start
 .bss.callback_list
                0x1ff38254        0x4 common/built-in.o
 .bss.flags_list
                0x1ff38258        0x4 common/built-in.o
 .bss.env_flash
                0x1ff3825c        0x4 common/built-in.o
 .bss.flag_repeat
                0x1ff38260        0x4 common/built-in.o
 .bss.the_command.6974
                0x1ff38264      0x800 common/built-in.o
 .bss.ifs       0x1ff38a64        0x4 common/built-in.o
 .bss.buf.7174  0x1ff38a68       0x28 common/built-in.o
 .bss.last_return_code
                0x1ff38a90        0x4 common/built-in.o
 .bss.map       0x1ff38a94      0x100 common/built-in.o
 .bss.do_repeat
                0x1ff38b94        0x4 common/built-in.o
 .bss.top_vars  0x1ff38b98        0x4 common/built-in.o
 .bss.load_addr
                0x1ff38b9c        0x4 common/built-in.o
                0x1ff38b9c                load_addr
 .bss.hist_list
                0x1ff38ba0       0x50 common/built-in.o
 .bss.hist_lines
                0x1ff38bf0     0xa014 common/built-in.o
 .bss.hist_max  0x1ff42c04        0x4 common/built-in.o
 .bss.initted.7257
                0x1ff42c08        0x4 common/built-in.o
 .bss.hist_add_idx
                0x1ff42c0c        0x4 common/built-in.o
 .bss.hist_num  0x1ff42c10        0x4 common/built-in.o
 .bss.console_buffer
                0x1ff42c14      0x801 common/built-in.o
                0x1ff42c14                console_buffer
 *fill*         0x1ff43415        0x3 
 .bss.current_mii
                0x1ff43418        0x4 common/built-in.o
 .bss.mii_devs  0x1ff4341c        0x8 common/built-in.o
 .bss.devs      0x1ff43424       0x3c common/built-in.o
 .bss.stdio_devices
                0x1ff43460        0xc common/built-in.o
                0x1ff43460                stdio_devices
 .bss.xyz       0x1ff4346c      0x434 common/built-in.o
 .bss.desc_table
                0x1ff438a0       0x28 drivers/built-in.o
 .bss.mmc_devices
                0x1ff438c8        0x8 drivers/mmc/built-in.o
 .bss.aligned_buffer
                0x1ff438d0        0x4 drivers/mmc/built-in.o
                0x1ff438d0                aligned_buffer
 .bss.input_buffer
                0x1ff438d4      0x200 drivers/net/built-in.o
 .bss.nc_ip     0x1ff43ad4        0x4 drivers/net/built-in.o
 .bss.net_loop_last_protocol
                0x1ff43ad8        0x4 drivers/net/built-in.o
                0x1ff43ad8                net_loop_last_protocol
 .bss.env_changed_id.6926
                0x1ff43adc        0x4 drivers/net/built-in.o
 .bss.nc_ether  0x1ff43ae0        0x6 drivers/net/built-in.o
 *fill*         0x1ff43ae6        0x2 
 .bss.net_timeout
                0x1ff43ae8        0x4 drivers/net/built-in.o
 .bss.input_recursion
                0x1ff43aec        0x4 drivers/net/built-in.o
 .bss.nc_in_port
                0x1ff43af0        0x2 drivers/net/built-in.o
 *fill*         0x1ff43af2        0x2 
 .bss.output_packet
                0x1ff43af4        0x4 drivers/net/built-in.o
 .bss.input_offset
                0x1ff43af8        0x4 drivers/net/built-in.o
 .bss.output_packet_len
                0x1ff43afc        0x4 drivers/net/built-in.o
 .bss.our_ip.6925
                0x1ff43b00        0x4 drivers/net/built-in.o
 .bss.netmask.6924
                0x1ff43b04        0x4 drivers/net/built-in.o
 .bss.output_recursion
                0x1ff43b08        0x4 drivers/net/built-in.o
 .bss.nc_out_port
                0x1ff43b0c        0x2 drivers/net/built-in.o
 *fill*         0x1ff43b0e        0x2 
 .bss.input_size
                0x1ff43b10        0x4 drivers/net/built-in.o
 .bss.serial_devices
                0x1ff43b14        0x4 drivers/serial/built-in.o
 .bss.serial_current
                0x1ff43b18        0x4 drivers/serial/built-in.o
 .bss.current_u_page.8983
                0x1ff43b1c        0x1 drivers/spi/built-in.o
 *fill*         0x1ff43b1d        0x3 
 .bss.part_info
                0x1ff43b20        0x4 fs/built-in.o
 .bss.ext4fs_block_dev_desc
                0x1ff43b24        0x4 fs/built-in.o
 .bss.part_offset
                0x1ff43b28        0x4 fs/built-in.o
                0x1ff43b28                part_offset
 .bss.ext4fs_indir3_block
                0x1ff43b2c        0x4 fs/built-in.o
                0x1ff43b2c                ext4fs_indir3_block
 .bss.ext4fs_root
                0x1ff43b30        0x4 fs/built-in.o
                0x1ff43b30                ext4fs_root
 .bss.ext4fs_indir3_size
                0x1ff43b34        0x4 fs/built-in.o
                0x1ff43b34                ext4fs_indir3_size
 .bss.ext4fs_indir1_block
                0x1ff43b38        0x4 fs/built-in.o
                0x1ff43b38                ext4fs_indir1_block
 .bss.ext4fs_indir2_size
                0x1ff43b3c        0x4 fs/built-in.o
                0x1ff43b3c                ext4fs_indir2_size
 .bss.ext4fs_indir2_block
                0x1ff43b40        0x4 fs/built-in.o
                0x1ff43b40                ext4fs_indir2_block
 .bss.ext4fs_indir1_size
                0x1ff43b44        0x4 fs/built-in.o
                0x1ff43b44                ext4fs_indir1_size
 .bss.symlinknest
                0x1ff43b48        0x4 fs/built-in.o
 .bss.ext4fs_file
                0x1ff43b4c        0x4 fs/built-in.o
                0x1ff43b4c                ext4fs_file
 *fill*         0x1ff43b50        0x0 
 .bss.ext_fs    0x1ff43b50       0x48 fs/built-in.o
                0x1ff43b50                ext_fs
 *fill*         0x1ff43b98        0x8 
 .bss.get_contents_vfatname_block
                0x1ff43ba0    0x10000 fs/built-in.o
                0x1ff43ba0                get_contents_vfatname_block
 .bss.do_fat_read_at_block
                0x1ff53ba0    0x10000 fs/built-in.o
                0x1ff53ba0                do_fat_read_at_block
 .bss.get_dentfromdir_block
                0x1ff63ba0    0x10000 fs/built-in.o
                0x1ff63ba0                get_dentfromdir_block
 .bss.empty_dentptr
                0x1ff73ba0        0x4 fs/built-in.o
 .bss.cur_part_info
                0x1ff73ba4       0x50 fs/built-in.o
 .bss.total_sector
                0x1ff73bf4        0x4 fs/built-in.o
 .bss.dir_curclust
                0x1ff73bf8        0x4 fs/built-in.o
 .bss.num_of_fats
                0x1ff73bfc        0x1 fs/built-in.o
 *fill*         0x1ff73bfd        0x3 
 .bss.cur_dev   0x1ff73c00        0x4 fs/built-in.o
 .bss.fs_partition
                0x1ff73c04       0x50 fs/built-in.o
 .bss.fs_type   0x1ff73c54        0x4 fs/built-in.o
 .bss.fs_dev_desc
                0x1ff73c58        0x4 fs/built-in.o
 .bss.errno     0x1ff73c5c        0x4 lib/built-in.o
                0x1ff73c5c                errno
 .bss.local.7004
                0x1ff73c60       0x16 lib/built-in.o
 *fill*         0x1ff73c76        0x2 
 .bss.NetArpWaitPacketIP
                0x1ff73c78        0x4 net/built-in.o
                0x1ff73c78                NetArpWaitPacketIP
 .bss.NetArpWaitTimerStart
                0x1ff73c7c        0x4 net/built-in.o
                0x1ff73c7c                NetArpWaitTimerStart
 .bss.NetArpWaitReplyIP
                0x1ff73c80        0x4 net/built-in.o
 .bss.NetArpWaitTxPacketSize
                0x1ff73c84        0x4 net/built-in.o
                0x1ff73c84                NetArpWaitTxPacketSize
 .bss.NetArpWaitTry
                0x1ff73c88        0x4 net/built-in.o
                0x1ff73c88                NetArpWaitTry
 .bss.NetArpTxPacket
                0x1ff73c8c        0x4 net/built-in.o
 .bss.NetArpPacketBuf
                0x1ff73c90      0x620 net/built-in.o
 .bss.NetArpWaitPacketMAC
                0x1ff742b0        0x4 net/built-in.o
                0x1ff742b0                NetArpWaitPacketMAC
 .bss.dhcp_state
                0x1ff742b4        0x4 net/built-in.o
 .bss.BootpTry  0x1ff742b8        0x4 net/built-in.o
                0x1ff742b8                BootpTry
 .bss.NetDHCPServerIP
                0x1ff742bc        0x4 net/built-in.o
 .bss.BootpID   0x1ff742c0        0x4 net/built-in.o
                0x1ff742c0                BootpID
 .bss.dhcp_leasetime
                0x1ff742c4        0x4 net/built-in.o
 .bss.env_changed_id.7419
                0x1ff742c8        0x4 net/built-in.o
 .bss.index.7366
                0x1ff742cc        0x4 net/built-in.o
 .bss.act.7418  0x1ff742d0        0x4 net/built-in.o
 .bss.first_failed.7413
                0x1ff742d4        0x4 net/built-in.o
 .bss.eth_current
                0x1ff742d8        0x4 net/built-in.o
                0x1ff742d8                eth_current
 .bss.eth_devices
                0x1ff742dc        0x4 net/built-in.o
 .bss.NetOurEther
                0x1ff742e0        0x6 net/built-in.o
                0x1ff742e0                NetOurEther
 *fill*         0x1ff742e6        0x2 
 .bss.NetServerIP
                0x1ff742e8        0x4 net/built-in.o
                0x1ff742e8                NetServerIP
 .bss.NetRestarted
                0x1ff742ec        0x4 net/built-in.o
 .bss.net_state
                0x1ff742f0        0x4 net/built-in.o
                0x1ff742f0                net_state
 .bss.NetRxPackets
                0x1ff742f4       0x10 net/built-in.o
                0x1ff742f4                NetRxPackets
 .bss.NetBootFileSize
                0x1ff74304        0x2 net/built-in.o
                0x1ff74304                NetBootFileSize
 .bss.NetEtherNullAddr
                0x1ff74306        0x6 net/built-in.o
                0x1ff74306                NetEtherNullAddr
 .bss.NetRxPacket
                0x1ff7430c        0x4 net/built-in.o
                0x1ff7430c                NetRxPacket
 .bss.udp_packet_handler
                0x1ff74310        0x4 net/built-in.o
 .bss.NetDevExists
                0x1ff74314        0x4 net/built-in.o
 .bss.timeStart
                0x1ff74318        0x4 net/built-in.o
 .bss.timeHandler
                0x1ff7431c        0x4 net/built-in.o
 .bss.NetTryCount
                0x1ff74320        0x4 net/built-in.o
 .bss.NetOurDNSIP
                0x1ff74324        0x4 net/built-in.o
                0x1ff74324                NetOurDNSIP
 .bss.NetOurSubnetMask
                0x1ff74328        0x4 net/built-in.o
                0x1ff74328                NetOurSubnetMask
 .bss.NetTxPacket
                0x1ff7432c        0x4 net/built-in.o
                0x1ff7432c                NetTxPacket
 .bss.NetBootFileXferSize
                0x1ff74330        0x4 net/built-in.o
                0x1ff74330                NetBootFileXferSize
 .bss.NetOurIP  0x1ff74334        0x4 net/built-in.o
                0x1ff74334                NetOurIP
 .bss.env_changed_id.6993
                0x1ff74338        0x4 net/built-in.o
 .bss.NetOurNISDomain
                0x1ff7433c       0x20 net/built-in.o
                0x1ff7433c                NetOurNISDomain
 .bss.NetIPID   0x1ff7435c        0x4 net/built-in.o
                0x1ff7435c                NetIPID
 .bss.NetOurGatewayIP
                0x1ff74360        0x4 net/built-in.o
                0x1ff74360                NetOurGatewayIP
 .bss.arp_packet_handler
                0x1ff74364        0x4 net/built-in.o
 .bss.NetOurHostName
                0x1ff74368       0x20 net/built-in.o
                0x1ff74368                NetOurHostName
 .bss.NetRestartWrap
                0x1ff74388        0x4 net/built-in.o
                0x1ff74388                NetRestartWrap
 .bss.NetRxPacketLen
                0x1ff7438c        0x4 net/built-in.o
                0x1ff7438c                NetRxPacketLen
 .bss.BootFile  0x1ff74390       0x80 net/built-in.o
                0x1ff74390                BootFile
 .bss.timeDelta
                0x1ff74410        0x4 net/built-in.o
 .bss.NetServerEther
                0x1ff74414        0x6 net/built-in.o
                0x1ff74414                NetServerEther
 .bss.PktBuf    0x1ff7441a     0x1e20 net/built-in.o
 .bss.NetOurRootPath
                0x1ff7623a       0x40 net/built-in.o
                0x1ff7623a                NetOurRootPath
 *fill*         0x1ff7627a        0x2 
 .bss.NfsOurPort
                0x1ff7627c        0x4 net/built-in.o
 .bss.NfsServerIP
                0x1ff76280        0x4 net/built-in.o
 .bss.nfs_filename
                0x1ff76284        0x4 net/built-in.o
 .bss.nfs_len   0x1ff76288        0x4 net/built-in.o
 .bss.NfsSrvMountPort
                0x1ff7628c        0x4 net/built-in.o
 .bss.dirfh     0x1ff76290       0x20 net/built-in.o
 .bss.NfsSrvNfsPort
                0x1ff762b0        0x4 net/built-in.o
 .bss.rpc_id    0x1ff762b4        0x4 net/built-in.o
 .bss.fs_mounted
                0x1ff762b8        0x4 net/built-in.o
 .bss.nfs_path_buff
                0x1ff762bc      0x800 net/built-in.o
 .bss.nfs_download_state
                0x1ff76abc        0x4 net/built-in.o
 .bss.nfs_path  0x1ff76ac0        0x4 net/built-in.o
 .bss.filefh    0x1ff76ac4       0x20 net/built-in.o
 .bss.NfsState  0x1ff76ae4        0x4 net/built-in.o
 .bss.default_filename
                0x1ff76ae8       0x4d net/built-in.o
 *fill*         0x1ff76b35        0x3 
 .bss.NfsTimeoutCount
                0x1ff76b38        0x4 net/built-in.o
 .bss.NetPingIP
                0x1ff76b3c        0x4 net/built-in.o
                0x1ff76b3c                NetPingIP
 .bss.PingSeqNo
                0x1ff76b40        0x2 net/built-in.o
 *fill*         0x1ff76b42        0x2 
 .bss.time_start
                0x1ff76b44        0x4 net/built-in.o
 .bss.TftpTimeoutCount
                0x1ff76b48        0x4 net/built-in.o
 .bss.TftpBlockWrap
                0x1ff76b4c        0x4 net/built-in.o
 .bss.TftpBlock
                0x1ff76b50        0x4 net/built-in.o
 .bss.TftpOurPort
                0x1ff76b54        0x4 net/built-in.o
 .bss.TftpRemoteIP
                0x1ff76b58        0x4 net/built-in.o
 .bss.TftpState
                0x1ff76b5c        0x4 net/built-in.o
 .bss.TftpRemotePort
                0x1ff76b60        0x4 net/built-in.o
 .bss.tftp_filename
                0x1ff76b64       0x80 net/built-in.o
 .bss.TftpBlockWrapOffset
                0x1ff76be4        0x4 net/built-in.o
 .bss.TftpLastBlock
                0x1ff76be8        0x4 net/built-in.o
                0x1ff76bec                . = ALIGN (0x4)
                0x1ff76bec                __bss_limit = .

.bss_end        0x1ff76bec        0x0
 *(.__bss_end)
 .__bss_end     0x1ff76bec        0x0 arch/arm/lib/built-in.o
                0x1ff76bec                __bss_end

/DISCARD/
 *(.dynsym)
 *(.dynbss*)
 *(.dynstr*)
 *(.dynamic*)
 *(.plt*)
 *(.interp*)
 *(.gnu*)
 *(.ARM.exidx*)
 *(.gnu.linkonce.armexidx.*)
Address of section .text set to 0x1ff00000
LOAD arch/arm/cpu/armv7/start.o
START GROUP
LOAD arch/arm/cpu/armv7/built-in.o
LOAD arch/arm/cpu/armv7/zynq/built-in.o
LOAD arch/arm/cpu/built-in.o
LOAD arch/arm/lib/built-in.o
LOAD board/xilinx/zynq/built-in.o
LOAD common/built-in.o
LOAD disk/built-in.o
LOAD drivers/built-in.o
LOAD drivers/dma/built-in.o
LOAD drivers/gpio/built-in.o
LOAD drivers/i2c/built-in.o
LOAD drivers/input/built-in.o
LOAD drivers/mmc/built-in.o
LOAD drivers/mtd/built-in.o
LOAD drivers/mtd/onenand/built-in.o
LOAD drivers/mtd/spi/built-in.o
LOAD drivers/net/built-in.o
LOAD drivers/net/phy/built-in.o
LOAD drivers/pci/built-in.o
LOAD drivers/power/battery/built-in.o
LOAD drivers/power/built-in.o
LOAD drivers/power/fuel_gauge/built-in.o
LOAD drivers/power/mfd/built-in.o
LOAD drivers/power/pmic/built-in.o
LOAD drivers/serial/built-in.o
LOAD drivers/spi/built-in.o
LOAD drivers/usb/eth/built-in.o
LOAD drivers/usb/gadget/built-in.o
LOAD drivers/usb/host/built-in.o
LOAD drivers/usb/musb-new/built-in.o
LOAD drivers/usb/musb/built-in.o
LOAD drivers/usb/phy/built-in.o
LOAD drivers/usb/ulpi/built-in.o
LOAD fs/built-in.o
LOAD lib/built-in.o
LOAD lib/libfdt/built-in.o
LOAD net/built-in.o
LOAD test/built-in.o
END GROUP
LOAD /home/kartha/Avnet-Digilent-ZedBoard-2014.2/build/linux/u-boot/u-boot-plnx/arch/arm/lib/eabi_compat.o
LOAD /opt/PetaLinux/petalinux-v2014.2-final/tools/linux-i386/arm-xilinx-linux-gnueabi/bin/../lib/gcc/arm-xilinx-linux-gnueabi/4.8.1/libgcc.a
OUTPUT(u-boot elf32-littlearm)

.ARM.attributes
                0x00000000       0x2f
 .ARM.attributes
                0x00000000       0x21 arch/arm/cpu/armv7/start.o
 .ARM.attributes
                0x00000021       0x2d arch/arm/cpu/armv7/built-in.o
 .ARM.attributes
                0x0000004e       0x2f arch/arm/cpu/armv7/zynq/built-in.o
 .ARM.attributes
                0x0000007d       0x2f arch/arm/lib/built-in.o
 .ARM.attributes
                0x000000ac       0x2d board/xilinx/zynq/built-in.o
 .ARM.attributes
                0x000000d9       0x2d common/built-in.o
 .ARM.attributes
                0x00000106       0x2d disk/built-in.o
 .ARM.attributes
                0x00000133       0x2d drivers/built-in.o
 .ARM.attributes
                0x00000160       0x2d drivers/mmc/built-in.o
 .ARM.attributes
                0x0000018d       0x2d drivers/mtd/spi/built-in.o
 .ARM.attributes
                0x000001ba       0x2d drivers/net/built-in.o
 .ARM.attributes
                0x000001e7       0x2d drivers/net/phy/built-in.o
 .ARM.attributes
                0x00000214       0x2d drivers/serial/built-in.o
 .ARM.attributes
                0x00000241       0x2d drivers/spi/built-in.o
 .ARM.attributes
                0x0000026e       0x2d fs/built-in.o
 .ARM.attributes
                0x0000029b       0x2d lib/built-in.o
 .ARM.attributes
                0x000002c8       0x2d lib/libfdt/built-in.o
 .ARM.attributes
                0x000002f5       0x2d net/built-in.o
 .ARM.attributes
                0x00000322       0x2d /home/kartha/Avnet-Digilent-ZedBoard-2014.2/build/linux/u-boot/u-boot-plnx/arch/arm/lib/eabi_compat.o
 .ARM.attributes
                0x0000034f       0x25 /opt/PetaLinux/petalinux-v2014.2-final/tools/linux-i386/arm-xilinx-linux-gnueabi/bin/../lib/gcc/arm-xilinx-linux-gnueabi/4.8.1/libgcc.a(_udivsi3.o)
 .ARM.attributes
                0x00000374       0x25 /opt/PetaLinux/petalinux-v2014.2-final/tools/linux-i386/arm-xilinx-linux-gnueabi/bin/../lib/gcc/arm-xilinx-linux-gnueabi/4.8.1/libgcc.a(_divsi3.o)
 .ARM.attributes
                0x00000399       0x25 /opt/PetaLinux/petalinux-v2014.2-final/tools/linux-i386/arm-xilinx-linux-gnueabi/bin/../lib/gcc/arm-xilinx-linux-gnueabi/4.8.1/libgcc.a(_lshrdi3.o)
 .ARM.attributes
                0x000003be       0x25 /opt/PetaLinux/petalinux-v2014.2-final/tools/linux-i386/arm-xilinx-linux-gnueabi/bin/../lib/gcc/arm-xilinx-linux-gnueabi/4.8.1/libgcc.a(_ashldi3.o)
 .ARM.attributes
                0x000003e3       0x25 /opt/PetaLinux/petalinux-v2014.2-final/tools/linux-i386/arm-xilinx-linux-gnueabi/bin/../lib/gcc/arm-xilinx-linux-gnueabi/4.8.1/libgcc.a(_dvmd_lnx.o)

.comment        0x00000000       0x30
 .comment       0x00000000       0x30 arch/arm/cpu/armv7/built-in.o
                                 0x93 (size before relaxing)
 .comment       0x00000000       0xf5 arch/arm/cpu/armv7/zynq/built-in.o
 .comment       0x00000000      0x188 arch/arm/lib/built-in.o
 .comment       0x00000000       0x31 board/xilinx/zynq/built-in.o
 .comment       0x00000000      0x9c3 common/built-in.o
 .comment       0x00000000       0x62 disk/built-in.o
 .comment       0x00000000       0xf5 drivers/built-in.o
 .comment       0x00000000       0xc4 drivers/mmc/built-in.o
 .comment       0x00000000       0xc4 drivers/mtd/spi/built-in.o
 .comment       0x00000000       0x62 drivers/net/built-in.o
 .comment       0x00000000       0x62 drivers/net/phy/built-in.o
 .comment       0x00000000       0x62 drivers/serial/built-in.o
 .comment       0x00000000       0x62 drivers/spi/built-in.o
 .comment       0x00000000      0x126 fs/built-in.o
 .comment       0x00000000      0x498 lib/built-in.o
 .comment       0x00000000      0x157 lib/libfdt/built-in.o
 .comment       0x00000000      0x157 net/built-in.o
 .comment       0x00000000       0x31 /home/kartha/Avnet-Digilent-ZedBoard-2014.2/build/linux/u-boot/u-boot-plnx/arch/arm/lib/eabi_compat.o

.note.GNU-stack
                0x00000000        0x0
 .note.GNU-stack
                0x00000000        0x0 arch/arm/cpu/armv7/built-in.o
 .note.GNU-stack
                0x00000000        0x0 arch/arm/cpu/armv7/zynq/built-in.o
 .note.GNU-stack
                0x00000000        0x0 arch/arm/lib/built-in.o
 .note.GNU-stack
                0x00000000        0x0 board/xilinx/zynq/built-in.o
 .note.GNU-stack
                0x00000000        0x0 common/built-in.o
 .note.GNU-stack
                0x00000000        0x0 disk/built-in.o
 .note.GNU-stack
                0x00000000        0x0 drivers/built-in.o
 .note.GNU-stack
                0x00000000        0x0 drivers/mmc/built-in.o
 .note.GNU-stack
                0x00000000        0x0 drivers/mtd/spi/built-in.o
 .note.GNU-stack
                0x00000000        0x0 drivers/net/built-in.o
 .note.GNU-stack
                0x00000000        0x0 drivers/net/phy/built-in.o
 .note.GNU-stack
                0x00000000        0x0 drivers/serial/built-in.o
 .note.GNU-stack
                0x00000000        0x0 drivers/spi/built-in.o
 .note.GNU-stack
                0x00000000        0x0 fs/built-in.o
 .note.GNU-stack
                0x00000000        0x0 lib/built-in.o
 .note.GNU-stack
                0x00000000        0x0 lib/libfdt/built-in.o
 .note.GNU-stack
                0x00000000        0x0 net/built-in.o
 .note.GNU-stack
                0x00000000        0x0 /home/kartha/Avnet-Digilent-ZedBoard-2014.2/build/linux/u-boot/u-boot-plnx/arch/arm/lib/eabi_compat.o
 .note.GNU-stack
                0x00000000        0x0 /opt/PetaLinux/petalinux-v2014.2-final/tools/linux-i386/arm-xilinx-linux-gnueabi/bin/../lib/gcc/arm-xilinx-linux-gnueabi/4.8.1/libgcc.a(_udivsi3.o)
 .note.GNU-stack
                0x00000000        0x0 /opt/PetaLinux/petalinux-v2014.2-final/tools/linux-i386/arm-xilinx-linux-gnueabi/bin/../lib/gcc/arm-xilinx-linux-gnueabi/4.8.1/libgcc.a(_divsi3.o)
 .note.GNU-stack
                0x00000000        0x0 /opt/PetaLinux/petalinux-v2014.2-final/tools/linux-i386/arm-xilinx-linux-gnueabi/bin/../lib/gcc/arm-xilinx-linux-gnueabi/4.8.1/libgcc.a(_lshrdi3.o)
 .note.GNU-stack
                0x00000000        0x0 /opt/PetaLinux/petalinux-v2014.2-final/tools/linux-i386/arm-xilinx-linux-gnueabi/bin/../lib/gcc/arm-xilinx-linux-gnueabi/4.8.1/libgcc.a(_ashldi3.o)
 .note.GNU-stack
                0x00000000        0x0 /opt/PetaLinux/petalinux-v2014.2-final/tools/linux-i386/arm-xilinx-linux-gnueabi/bin/../lib/gcc/arm-xilinx-linux-gnueabi/4.8.1/libgcc.a(_dvmd_lnx.o)

.debug_line     0x00000000    0x1c8a6
 .debug_line    0x00000000       0x9a arch/arm/cpu/armv7/start.o
 .debug_line    0x0000009a      0x691 arch/arm/cpu/armv7/built-in.o
 .debug_line    0x0000072b      0xf8c arch/arm/cpu/armv7/zynq/built-in.o
 .debug_line    0x000016b7     0x147e arch/arm/lib/built-in.o
 .debug_line    0x00002b35      0x30c board/xilinx/zynq/built-in.o
 .debug_line    0x00002e41     0xae05 common/built-in.o
 .debug_line    0x0000dc46      0x7e9 disk/built-in.o
 .debug_line    0x0000e42f      0xa49 drivers/built-in.o
 .debug_line    0x0000ee78     0x12c2 drivers/mmc/built-in.o
 .debug_line    0x0001013a      0xa86 drivers/mtd/spi/built-in.o
 .debug_line    0x00010bc0      0x8d4 drivers/net/built-in.o
 .debug_line    0x00011494      0xaef drivers/net/phy/built-in.o
 .debug_line    0x00011f83      0x76a drivers/serial/built-in.o
 .debug_line    0x000126ed      0x6b2 drivers/spi/built-in.o
 .debug_line    0x00012d9f     0x1da7 fs/built-in.o
 .debug_line    0x00014b46     0x4379 lib/built-in.o
 .debug_line    0x00018ebf     0x16ea lib/libfdt/built-in.o
 .debug_line    0x0001a5a9     0x215a net/built-in.o
 .debug_line    0x0001c703      0x1a3 /home/kartha/Avnet-Digilent-ZedBoard-2014.2/build/linux/u-boot/u-boot-plnx/arch/arm/lib/eabi_compat.o

.debug_info     0x00000000    0x75018
 .debug_info    0x00000000       0x93 arch/arm/cpu/armv7/start.o
 .debug_info    0x00000093     0x13ca arch/arm/cpu/armv7/built-in.o
 .debug_info    0x0000145d     0x4553 arch/arm/cpu/armv7/zynq/built-in.o
 .debug_info    0x000059b0     0x4661 arch/arm/lib/built-in.o
 .debug_info    0x0000a011      0x89b board/xilinx/zynq/built-in.o
 .debug_info    0x0000a8ac    0x312a5 common/built-in.o
 .debug_info    0x0003bb51     0x1fab disk/built-in.o
 .debug_info    0x0003dafc     0x24cc drivers/built-in.o
 .debug_info    0x0003ffc8     0x5840 drivers/mmc/built-in.o
 .debug_info    0x00045808     0x2b54 drivers/mtd/spi/built-in.o
 .debug_info    0x0004835c     0x2b3c drivers/net/built-in.o
 .debug_info    0x0004ae98     0x4123 drivers/net/phy/built-in.o
 .debug_info    0x0004efbb     0x18f7 drivers/serial/built-in.o
 .debug_info    0x000508b2     0x1d49 drivers/spi/built-in.o
 .debug_info    0x000525fb     0x91ad fs/built-in.o
 .debug_info    0x0005b7a8     0xa6dc lib/built-in.o
 .debug_info    0x00065e84     0x57fd lib/libfdt/built-in.o
 .debug_info    0x0006b681     0x961d net/built-in.o
 .debug_info    0x00074c9e      0x37a /home/kartha/Avnet-Digilent-ZedBoard-2014.2/build/linux/u-boot/u-boot-plnx/arch/arm/lib/eabi_compat.o

.debug_abbrev   0x00000000    0x1708c
 .debug_abbrev  0x00000000       0x14 arch/arm/cpu/armv7/start.o
 .debug_abbrev  0x00000014      0x629 arch/arm/cpu/armv7/built-in.o
 .debug_abbrev  0x0000063d      0xdc2 arch/arm/cpu/armv7/zynq/built-in.o
 .debug_abbrev  0x000013ff     0x11a2 arch/arm/lib/built-in.o
 .debug_abbrev  0x000025a1      0x221 board/xilinx/zynq/built-in.o
 .debug_abbrev  0x000027c2     0x8e23 common/built-in.o
 .debug_abbrev  0x0000b5e5      0x6fd disk/built-in.o
 .debug_abbrev  0x0000bce2      0x99b drivers/built-in.o
 .debug_abbrev  0x0000c67d      0xff1 drivers/mmc/built-in.o
 .debug_abbrev  0x0000d66e      0xa47 drivers/mtd/spi/built-in.o
 .debug_abbrev  0x0000e0b5      0x8ee drivers/net/built-in.o
 .debug_abbrev  0x0000e9a3      0x7ca drivers/net/phy/built-in.o
 .debug_abbrev  0x0000f16d      0x6ee drivers/serial/built-in.o
 .debug_abbrev  0x0000f85b      0x5ee drivers/spi/built-in.o
 .debug_abbrev  0x0000fe49     0x147d fs/built-in.o
 .debug_abbrev  0x000112c6     0x2f35 lib/built-in.o
 .debug_abbrev  0x000141fb      0xf95 lib/libfdt/built-in.o
 .debug_abbrev  0x00015190     0x1da1 net/built-in.o
 .debug_abbrev  0x00016f31      0x15b /home/kartha/Avnet-Digilent-ZedBoard-2014.2/build/linux/u-boot/u-boot-plnx/arch/arm/lib/eabi_compat.o

.debug_aranges  0x00000000     0x2cd8
 .debug_aranges
                0x00000000       0x20 arch/arm/cpu/armv7/start.o
 .debug_aranges
                0x00000020       0xf0 arch/arm/cpu/armv7/built-in.o
 .debug_aranges
                0x00000110      0x1a8 arch/arm/cpu/armv7/zynq/built-in.o
 .debug_aranges
                0x000002b8      0x2b0 arch/arm/lib/built-in.o
 .debug_aranges
                0x00000568       0x40 board/xilinx/zynq/built-in.o
 .debug_aranges
                0x000005a8      0xff8 common/built-in.o
 .debug_aranges
                0x000015a0       0x98 disk/built-in.o
 .debug_aranges
                0x00001638       0xf0 drivers/built-in.o
 .debug_aranges
                0x00001728      0x190 drivers/mmc/built-in.o
 .debug_aranges
                0x000018b8       0xf8 drivers/mtd/spi/built-in.o
 .debug_aranges
                0x000019b0       0xe8 drivers/net/built-in.o
 .debug_aranges
                0x00001a98      0x138 drivers/net/phy/built-in.o
 .debug_aranges
                0x00001bd0      0x128 drivers/serial/built-in.o
 .debug_aranges
                0x00001cf8       0xa8 drivers/spi/built-in.o
 .debug_aranges
                0x00001da0      0x2b0 fs/built-in.o
 .debug_aranges
                0x00002050      0x628 lib/built-in.o
 .debug_aranges
                0x00002678      0x2e8 lib/libfdt/built-in.o
 .debug_aranges
                0x00002960      0x348 net/built-in.o
 .debug_aranges
                0x00002ca8       0x30 /home/kartha/Avnet-Digilent-ZedBoard-2014.2/build/linux/u-boot/u-boot-plnx/arch/arm/lib/eabi_compat.o

.debug_frame    0x00000000     0x72d0
 .debug_frame   0x00000000      0x1e8 arch/arm/cpu/armv7/built-in.o
 .debug_frame   0x000001e8      0x360 arch/arm/cpu/armv7/zynq/built-in.o
 .debug_frame   0x00000548      0x4d0 arch/arm/lib/built-in.o
 .debug_frame   0x00000a18       0x78 board/xilinx/zynq/built-in.o
 .debug_frame   0x00000a90     0x2a1c common/built-in.o
 .debug_frame   0x000034ac      0x1b8 disk/built-in.o
 .debug_frame   0x00003664      0x16c drivers/built-in.o
 .debug_frame   0x000037d0      0x43c drivers/mmc/built-in.o
 .debug_frame   0x00003c0c      0x290 drivers/mtd/spi/built-in.o
 .debug_frame   0x00003e9c      0x2a4 drivers/net/built-in.o
 .debug_frame   0x00004140      0x3b8 drivers/net/phy/built-in.o
 .debug_frame   0x000044f8      0x2c4 drivers/serial/built-in.o
 .debug_frame   0x000047bc      0x190 drivers/spi/built-in.o
 .debug_frame   0x0000494c      0x80c fs/built-in.o
 .debug_frame   0x00005158      0xe98 lib/built-in.o
 .debug_frame   0x00005ff0      0x8f8 lib/libfdt/built-in.o
 .debug_frame   0x000068e8      0x960 net/built-in.o
 .debug_frame   0x00007248       0x48 /home/kartha/Avnet-Digilent-ZedBoard-2014.2/build/linux/u-boot/u-boot-plnx/arch/arm/lib/eabi_compat.o
 .debug_frame   0x00007290       0x20 /opt/PetaLinux/petalinux-v2014.2-final/tools/linux-i386/arm-xilinx-linux-gnueabi/bin/../lib/gcc/arm-xilinx-linux-gnueabi/4.8.1/libgcc.a(_udivsi3.o)
 .debug_frame   0x000072b0       0x20 /opt/PetaLinux/petalinux-v2014.2-final/tools/linux-i386/arm-xilinx-linux-gnueabi/bin/../lib/gcc/arm-xilinx-linux-gnueabi/4.8.1/libgcc.a(_divsi3.o)

.debug_str      0x00000000     0xc2f6
 .debug_str     0x00000000      0x644 arch/arm/cpu/armv7/built-in.o
                                0xf3c (size before relaxing)
 .debug_str     0x00000644      0xbef arch/arm/cpu/armv7/zynq/built-in.o
                               0x2a54 (size before relaxing)
 .debug_str     0x00001233     0x1403 arch/arm/lib/built-in.o
                               0x4197 (size before relaxing)
 .debug_str     0x00002636      0x27d board/xilinx/zynq/built-in.o
                                0x791 (size before relaxing)
 .debug_str     0x000028b3     0x4878 common/built-in.o
                              0x1a513 (size before relaxing)
 .debug_str     0x0000712b      0x2b0 disk/built-in.o
                                0xde3 (size before relaxing)
 .debug_str     0x000073db      0x29a drivers/built-in.o
                               0x180b (size before relaxing)
 .debug_str     0x00007675      0x4ae drivers/mmc/built-in.o
                               0x204f (size before relaxing)
 .debug_str     0x00007b23      0x448 drivers/mtd/spi/built-in.o
                               0x191d (size before relaxing)
 .debug_str     0x00007f6b      0x512 drivers/net/built-in.o
                               0x12e3 (size before relaxing)
 .debug_str     0x0000847d      0x3bc drivers/net/phy/built-in.o
                               0x1178 (size before relaxing)
 .debug_str     0x00008839      0x37f drivers/serial/built-in.o
                                0xdbe (size before relaxing)
 .debug_str     0x00008bb8      0x3c7 drivers/spi/built-in.o
                                0xf84 (size before relaxing)
 .debug_str     0x00008f7f     0x119b fs/built-in.o
                               0x3ae1 (size before relaxing)
 .debug_str     0x0000a11a      0xafb lib/built-in.o
                               0x6872 (size before relaxing)
 .debug_str     0x0000ac15      0x772 lib/libfdt/built-in.o
                               0x22a4 (size before relaxing)
 .debug_str     0x0000b387      0xf26 net/built-in.o
                               0x570a (size before relaxing)
 .debug_str     0x0000c2ad       0x49 /home/kartha/Avnet-Digilent-ZedBoard-2014.2/build/linux/u-boot/u-boot-plnx/arch/arm/lib/eabi_compat.o
                                0x404 (size before relaxing)

.debug_loc      0x00000000    0x3fb54
 .debug_loc     0x00000000      0x6b8 arch/arm/cpu/armv7/built-in.o
 .debug_loc     0x000006b8      0xd47 arch/arm/cpu/armv7/zynq/built-in.o
 .debug_loc     0x000013ff      0x99a arch/arm/lib/built-in.o
 .debug_loc     0x00001d99       0x55 board/xilinx/zynq/built-in.o
 .debug_loc     0x00001dee    0x1593f common/built-in.o
 .debug_loc     0x0001772d      0xec2 disk/built-in.o
 .debug_loc     0x000185ef      0xcca drivers/built-in.o
 .debug_loc     0x000192b9     0x2422 drivers/mmc/built-in.o
 .debug_loc     0x0001b6db     0x10ce drivers/mtd/spi/built-in.o
 .debug_loc     0x0001c7a9      0xf34 drivers/net/built-in.o
 .debug_loc     0x0001d6dd     0x22a3 drivers/net/phy/built-in.o
 .debug_loc     0x0001f980      0x5a9 drivers/serial/built-in.o
 .debug_loc     0x0001ff29      0xb6f drivers/spi/built-in.o
 .debug_loc     0x00020a98     0x6524 fs/built-in.o
 .debug_loc     0x00026fbc    0x11bd1 lib/built-in.o
 .debug_loc     0x00038b8d     0x3d6d lib/libfdt/built-in.o
 .debug_loc     0x0003c8fa     0x322e net/built-in.o
 .debug_loc     0x0003fb28       0x2c /home/kartha/Avnet-Digilent-ZedBoard-2014.2/build/linux/u-boot/u-boot-plnx/arch/arm/lib/eabi_compat.o

.debug_ranges   0x00000000     0x5138
 .debug_ranges  0x00000000      0x108 arch/arm/cpu/armv7/built-in.o
 .debug_ranges  0x00000108      0x710 arch/arm/cpu/armv7/zynq/built-in.o
 .debug_ranges  0x00000818      0x200 arch/arm/lib/built-in.o
 .debug_ranges  0x00000a18       0x30 board/xilinx/zynq/built-in.o
 .debug_ranges  0x00000a48     0x18a8 common/built-in.o
 .debug_ranges  0x000022f0      0x128 disk/built-in.o
 .debug_ranges  0x00002418      0x198 drivers/built-in.o
 .debug_ranges  0x000025b0      0x440 drivers/mmc/built-in.o
 .debug_ranges  0x000029f0      0x178 drivers/mtd/spi/built-in.o
 .debug_ranges  0x00002b68      0x188 drivers/net/built-in.o
 .debug_ranges  0x00002cf0      0x530 drivers/net/phy/built-in.o
 .debug_ranges  0x00003220      0x150 drivers/serial/built-in.o
 .debug_ranges  0x00003370      0x1f8 drivers/spi/built-in.o
 .debug_ranges  0x00003568      0x6d0 fs/built-in.o
 .debug_ranges  0x00003c38      0x928 lib/built-in.o
 .debug_ranges  0x00004560      0x528 lib/libfdt/built-in.o
 .debug_ranges  0x00004a88      0x690 net/built-in.o
 .debug_ranges  0x00005118       0x20 /home/kartha/Avnet-Digilent-ZedBoard-2014.2/build/linux/u-boot/u-boot-plnx/arch/arm/lib/eabi_compat.o
